
bomb:     file format elf64-x86-64


Disassembly of section .init:

0000000000001000 <_init>:
    1000:	48 83 ec 08          	sub    $0x8,%rsp
    1004:	48 8b 05 dd 3f 00 00 	mov    0x3fdd(%rip),%rax        # 4fe8 <__gmon_start__>
    100b:	48 85 c0             	test   %rax,%rax
    100e:	74 02                	je     1012 <_init+0x12>
    1010:	ff d0                	callq  *%rax
    1012:	48 83 c4 08          	add    $0x8,%rsp
    1016:	c3                   	retq   

Disassembly of section .plt:

0000000000001020 <.plt>:
    1020:	ff 35 e2 3f 00 00    	pushq  0x3fe2(%rip)        # 5008 <_GLOBAL_OFFSET_TABLE_+0x8>
    1026:	ff 25 e4 3f 00 00    	jmpq   *0x3fe4(%rip)        # 5010 <_GLOBAL_OFFSET_TABLE_+0x10>
    102c:	0f 1f 40 00          	nopl   0x0(%rax)

0000000000001030 <getenv@plt>:
    1030:	ff 25 e2 3f 00 00    	jmpq   *0x3fe2(%rip)        # 5018 <getenv@GLIBC_2.2.5>
    1036:	68 00 00 00 00       	pushq  $0x0
    103b:	e9 e0 ff ff ff       	jmpq   1020 <.plt>

0000000000001040 <__errno_location@plt>:
    1040:	ff 25 da 3f 00 00    	jmpq   *0x3fda(%rip)        # 5020 <__errno_location@GLIBC_2.2.5>
    1046:	68 01 00 00 00       	pushq  $0x1
    104b:	e9 d0 ff ff ff       	jmpq   1020 <.plt>

0000000000001050 <strcpy@plt>:
    1050:	ff 25 d2 3f 00 00    	jmpq   *0x3fd2(%rip)        # 5028 <strcpy@GLIBC_2.2.5>
    1056:	68 02 00 00 00       	pushq  $0x2
    105b:	e9 c0 ff ff ff       	jmpq   1020 <.plt>

0000000000001060 <puts@plt>:
    1060:	ff 25 ca 3f 00 00    	jmpq   *0x3fca(%rip)        # 5030 <puts@GLIBC_2.2.5>
    1066:	68 03 00 00 00       	pushq  $0x3
    106b:	e9 b0 ff ff ff       	jmpq   1020 <.plt>

0000000000001070 <write@plt>:
    1070:	ff 25 c2 3f 00 00    	jmpq   *0x3fc2(%rip)        # 5038 <write@GLIBC_2.2.5>
    1076:	68 04 00 00 00       	pushq  $0x4
    107b:	e9 a0 ff ff ff       	jmpq   1020 <.plt>

0000000000001080 <strlen@plt>:
    1080:	ff 25 ba 3f 00 00    	jmpq   *0x3fba(%rip)        # 5040 <strlen@GLIBC_2.2.5>
    1086:	68 05 00 00 00       	pushq  $0x5
    108b:	e9 90 ff ff ff       	jmpq   1020 <.plt>

0000000000001090 <htons@plt>:
    1090:	ff 25 b2 3f 00 00    	jmpq   *0x3fb2(%rip)        # 5048 <htons@GLIBC_2.2.5>
    1096:	68 06 00 00 00       	pushq  $0x6
    109b:	e9 80 ff ff ff       	jmpq   1020 <.plt>

00000000000010a0 <printf@plt>:
    10a0:	ff 25 aa 3f 00 00    	jmpq   *0x3faa(%rip)        # 5050 <printf@GLIBC_2.2.5>
    10a6:	68 07 00 00 00       	pushq  $0x7
    10ab:	e9 70 ff ff ff       	jmpq   1020 <.plt>

00000000000010b0 <alarm@plt>:
    10b0:	ff 25 a2 3f 00 00    	jmpq   *0x3fa2(%rip)        # 5058 <alarm@GLIBC_2.2.5>
    10b6:	68 08 00 00 00       	pushq  $0x8
    10bb:	e9 60 ff ff ff       	jmpq   1020 <.plt>

00000000000010c0 <close@plt>:
    10c0:	ff 25 9a 3f 00 00    	jmpq   *0x3f9a(%rip)        # 5060 <close@GLIBC_2.2.5>
    10c6:	68 09 00 00 00       	pushq  $0x9
    10cb:	e9 50 ff ff ff       	jmpq   1020 <.plt>

00000000000010d0 <read@plt>:
    10d0:	ff 25 92 3f 00 00    	jmpq   *0x3f92(%rip)        # 5068 <read@GLIBC_2.2.5>
    10d6:	68 0a 00 00 00       	pushq  $0xa
    10db:	e9 40 ff ff ff       	jmpq   1020 <.plt>

00000000000010e0 <fgets@plt>:
    10e0:	ff 25 8a 3f 00 00    	jmpq   *0x3f8a(%rip)        # 5070 <fgets@GLIBC_2.2.5>
    10e6:	68 0b 00 00 00       	pushq  $0xb
    10eb:	e9 30 ff ff ff       	jmpq   1020 <.plt>

00000000000010f0 <strcmp@plt>:
    10f0:	ff 25 82 3f 00 00    	jmpq   *0x3f82(%rip)        # 5078 <strcmp@GLIBC_2.2.5>
    10f6:	68 0c 00 00 00       	pushq  $0xc
    10fb:	e9 20 ff ff ff       	jmpq   1020 <.plt>

0000000000001100 <signal@plt>:
    1100:	ff 25 7a 3f 00 00    	jmpq   *0x3f7a(%rip)        # 5080 <signal@GLIBC_2.2.5>
    1106:	68 0d 00 00 00       	pushq  $0xd
    110b:	e9 10 ff ff ff       	jmpq   1020 <.plt>

0000000000001110 <gethostbyname@plt>:
    1110:	ff 25 72 3f 00 00    	jmpq   *0x3f72(%rip)        # 5088 <gethostbyname@GLIBC_2.2.5>
    1116:	68 0e 00 00 00       	pushq  $0xe
    111b:	e9 00 ff ff ff       	jmpq   1020 <.plt>

0000000000001120 <fprintf@plt>:
    1120:	ff 25 6a 3f 00 00    	jmpq   *0x3f6a(%rip)        # 5090 <fprintf@GLIBC_2.2.5>
    1126:	68 0f 00 00 00       	pushq  $0xf
    112b:	e9 f0 fe ff ff       	jmpq   1020 <.plt>

0000000000001130 <memcpy@plt>:
    1130:	ff 25 62 3f 00 00    	jmpq   *0x3f62(%rip)        # 5098 <memcpy@GLIBC_2.14>
    1136:	68 10 00 00 00       	pushq  $0x10
    113b:	e9 e0 fe ff ff       	jmpq   1020 <.plt>

0000000000001140 <fflush@plt>:
    1140:	ff 25 5a 3f 00 00    	jmpq   *0x3f5a(%rip)        # 50a0 <fflush@GLIBC_2.2.5>
    1146:	68 11 00 00 00       	pushq  $0x11
    114b:	e9 d0 fe ff ff       	jmpq   1020 <.plt>

0000000000001150 <__isoc99_sscanf@plt>:
    1150:	ff 25 52 3f 00 00    	jmpq   *0x3f52(%rip)        # 50a8 <__isoc99_sscanf@GLIBC_2.7>
    1156:	68 12 00 00 00       	pushq  $0x12
    115b:	e9 c0 fe ff ff       	jmpq   1020 <.plt>

0000000000001160 <memmove@plt>:
    1160:	ff 25 4a 3f 00 00    	jmpq   *0x3f4a(%rip)        # 50b0 <memmove@GLIBC_2.2.5>
    1166:	68 13 00 00 00       	pushq  $0x13
    116b:	e9 b0 fe ff ff       	jmpq   1020 <.plt>

0000000000001170 <fopen@plt>:
    1170:	ff 25 42 3f 00 00    	jmpq   *0x3f42(%rip)        # 50b8 <fopen@GLIBC_2.2.5>
    1176:	68 14 00 00 00       	pushq  $0x14
    117b:	e9 a0 fe ff ff       	jmpq   1020 <.plt>

0000000000001180 <atoi@plt>:
    1180:	ff 25 3a 3f 00 00    	jmpq   *0x3f3a(%rip)        # 50c0 <atoi@GLIBC_2.2.5>
    1186:	68 15 00 00 00       	pushq  $0x15
    118b:	e9 90 fe ff ff       	jmpq   1020 <.plt>

0000000000001190 <sprintf@plt>:
    1190:	ff 25 32 3f 00 00    	jmpq   *0x3f32(%rip)        # 50c8 <sprintf@GLIBC_2.2.5>
    1196:	68 16 00 00 00       	pushq  $0x16
    119b:	e9 80 fe ff ff       	jmpq   1020 <.plt>

00000000000011a0 <exit@plt>:
    11a0:	ff 25 2a 3f 00 00    	jmpq   *0x3f2a(%rip)        # 50d0 <exit@GLIBC_2.2.5>
    11a6:	68 17 00 00 00       	pushq  $0x17
    11ab:	e9 70 fe ff ff       	jmpq   1020 <.plt>

00000000000011b0 <connect@plt>:
    11b0:	ff 25 22 3f 00 00    	jmpq   *0x3f22(%rip)        # 50d8 <connect@GLIBC_2.2.5>
    11b6:	68 18 00 00 00       	pushq  $0x18
    11bb:	e9 60 fe ff ff       	jmpq   1020 <.plt>

00000000000011c0 <sleep@plt>:
    11c0:	ff 25 1a 3f 00 00    	jmpq   *0x3f1a(%rip)        # 50e0 <sleep@GLIBC_2.2.5>
    11c6:	68 19 00 00 00       	pushq  $0x19
    11cb:	e9 50 fe ff ff       	jmpq   1020 <.plt>

00000000000011d0 <__ctype_b_loc@plt>:
    11d0:	ff 25 12 3f 00 00    	jmpq   *0x3f12(%rip)        # 50e8 <__ctype_b_loc@GLIBC_2.3>
    11d6:	68 1a 00 00 00       	pushq  $0x1a
    11db:	e9 40 fe ff ff       	jmpq   1020 <.plt>

00000000000011e0 <socket@plt>:
    11e0:	ff 25 0a 3f 00 00    	jmpq   *0x3f0a(%rip)        # 50f0 <socket@GLIBC_2.2.5>
    11e6:	68 1b 00 00 00       	pushq  $0x1b
    11eb:	e9 30 fe ff ff       	jmpq   1020 <.plt>

Disassembly of section .plt.got:

00000000000011f0 <__cxa_finalize@plt>:
    11f0:	ff 25 02 3e 00 00    	jmpq   *0x3e02(%rip)        # 4ff8 <__cxa_finalize@GLIBC_2.2.5>
    11f6:	66 90                	xchg   %ax,%ax

Disassembly of section .text:

0000000000001200 <_start>:
    1200:	31 ed                	xor    %ebp,%ebp
    1202:	49 89 d1             	mov    %rdx,%r9
    1205:	5e                   	pop    %rsi
    1206:	48 89 e2             	mov    %rsp,%rdx
    1209:	48 83 e4 f0          	and    $0xfffffffffffffff0,%rsp
    120d:	50                   	push   %rax
    120e:	54                   	push   %rsp
    120f:	4c 8d 05 7a 1b 00 00 	lea    0x1b7a(%rip),%r8        # 2d90 <__libc_csu_fini>
    1216:	48 8d 0d 13 1b 00 00 	lea    0x1b13(%rip),%rcx        # 2d30 <__libc_csu_init>
    121d:	48 8d 3d c1 00 00 00 	lea    0xc1(%rip),%rdi        # 12e5 <main>
    1224:	ff 15 b6 3d 00 00    	callq  *0x3db6(%rip)        # 4fe0 <__libc_start_main@GLIBC_2.2.5>
    122a:	f4                   	hlt    
    122b:	0f 1f 44 00 00       	nopl   0x0(%rax,%rax,1)

0000000000001230 <deregister_tm_clones>:
    1230:	48 8d 3d 89 45 00 00 	lea    0x4589(%rip),%rdi        # 57c0 <stdout@@GLIBC_2.2.5>
    1237:	48 8d 05 82 45 00 00 	lea    0x4582(%rip),%rax        # 57c0 <stdout@@GLIBC_2.2.5>
    123e:	48 39 f8             	cmp    %rdi,%rax
    1241:	74 15                	je     1258 <deregister_tm_clones+0x28>
    1243:	48 8b 05 8e 3d 00 00 	mov    0x3d8e(%rip),%rax        # 4fd8 <_ITM_deregisterTMCloneTable>
    124a:	48 85 c0             	test   %rax,%rax
    124d:	74 09                	je     1258 <deregister_tm_clones+0x28>
    124f:	ff e0                	jmpq   *%rax
    1251:	0f 1f 80 00 00 00 00 	nopl   0x0(%rax)
    1258:	c3                   	retq   
    1259:	0f 1f 80 00 00 00 00 	nopl   0x0(%rax)

0000000000001260 <register_tm_clones>:
    1260:	48 8d 3d 59 45 00 00 	lea    0x4559(%rip),%rdi        # 57c0 <stdout@@GLIBC_2.2.5>
    1267:	48 8d 35 52 45 00 00 	lea    0x4552(%rip),%rsi        # 57c0 <stdout@@GLIBC_2.2.5>
    126e:	48 29 fe             	sub    %rdi,%rsi
    1271:	48 89 f0             	mov    %rsi,%rax
    1274:	48 c1 ee 3f          	shr    $0x3f,%rsi
    1278:	48 c1 f8 03          	sar    $0x3,%rax
    127c:	48 01 c6             	add    %rax,%rsi
    127f:	48 d1 fe             	sar    %rsi
    1282:	74 14                	je     1298 <register_tm_clones+0x38>
    1284:	48 8b 05 65 3d 00 00 	mov    0x3d65(%rip),%rax        # 4ff0 <_ITM_registerTMCloneTable>
    128b:	48 85 c0             	test   %rax,%rax
    128e:	74 08                	je     1298 <register_tm_clones+0x38>
    1290:	ff e0                	jmpq   *%rax
    1292:	66 0f 1f 44 00 00    	nopw   0x0(%rax,%rax,1)
    1298:	c3                   	retq   
    1299:	0f 1f 80 00 00 00 00 	nopl   0x0(%rax)

00000000000012a0 <__do_global_dtors_aux>:
    12a0:	80 3d 41 45 00 00 00 	cmpb   $0x0,0x4541(%rip)        # 57e8 <completed.0>
    12a7:	75 2f                	jne    12d8 <__do_global_dtors_aux+0x38>
    12a9:	55                   	push   %rbp
    12aa:	48 83 3d 46 3d 00 00 	cmpq   $0x0,0x3d46(%rip)        # 4ff8 <__cxa_finalize@GLIBC_2.2.5>
    12b1:	00 
    12b2:	48 89 e5             	mov    %rsp,%rbp
    12b5:	74 0c                	je     12c3 <__do_global_dtors_aux+0x23>
    12b7:	48 8b 3d 4a 3e 00 00 	mov    0x3e4a(%rip),%rdi        # 5108 <__dso_handle>
    12be:	e8 2d ff ff ff       	callq  11f0 <__cxa_finalize@plt>
    12c3:	e8 68 ff ff ff       	callq  1230 <deregister_tm_clones>
    12c8:	c6 05 19 45 00 00 01 	movb   $0x1,0x4519(%rip)        # 57e8 <completed.0>
    12cf:	5d                   	pop    %rbp
    12d0:	c3                   	retq   
    12d1:	0f 1f 80 00 00 00 00 	nopl   0x0(%rax)
    12d8:	c3                   	retq   
    12d9:	0f 1f 80 00 00 00 00 	nopl   0x0(%rax)

00000000000012e0 <frame_dummy>:
    12e0:	e9 7b ff ff ff       	jmpq   1260 <register_tm_clones>

00000000000012e5 <main>:
    12e5:	55                   	push   %rbp
    12e6:	48 89 e5             	mov    %rsp,%rbp
    12e9:	48 83 ec 20          	sub    $0x20,%rsp
    12ed:	89 7d ec             	mov    %edi,-0x14(%rbp)
    12f0:	48 89 75 e0          	mov    %rsi,-0x20(%rbp)
    12f4:	83 7d ec 01          	cmpl   $0x1,-0x14(%rbp)
    12f8:	75 13                	jne    130d <main+0x28>
    12fa:	48 8b 05 cf 44 00 00 	mov    0x44cf(%rip),%rax        # 57d0 <stdin@@GLIBC_2.2.5>
    1301:	48 89 05 e8 44 00 00 	mov    %rax,0x44e8(%rip)        # 57f0 <infile>
    1308:	e9 88 00 00 00       	jmpq   1395 <main+0xb0>
    130d:	83 7d ec 02          	cmpl   $0x2,-0x14(%rbp)
    1311:	75 5d                	jne    1370 <main+0x8b>
    1313:	48 8b 45 e0          	mov    -0x20(%rbp),%rax
    1317:	48 83 c0 08          	add    $0x8,%rax
    131b:	48 8b 00             	mov    (%rax),%rax
    131e:	48 8d 35 e3 1c 00 00 	lea    0x1ce3(%rip),%rsi        # 3008 <_IO_stdin_used+0x8>
    1325:	48 89 c7             	mov    %rax,%rdi
    1328:	e8 43 fe ff ff       	callq  1170 <fopen@plt>
    132d:	48 89 05 bc 44 00 00 	mov    %rax,0x44bc(%rip)        # 57f0 <infile>
    1334:	48 8b 05 b5 44 00 00 	mov    0x44b5(%rip),%rax        # 57f0 <infile>
    133b:	48 85 c0             	test   %rax,%rax
    133e:	75 55                	jne    1395 <main+0xb0>
    1340:	48 8b 45 e0          	mov    -0x20(%rbp),%rax
    1344:	48 83 c0 08          	add    $0x8,%rax
    1348:	48 8b 10             	mov    (%rax),%rdx
    134b:	48 8b 45 e0          	mov    -0x20(%rbp),%rax
    134f:	48 8b 00             	mov    (%rax),%rax
    1352:	48 89 c6             	mov    %rax,%rsi
    1355:	48 8d 3d ae 1c 00 00 	lea    0x1cae(%rip),%rdi        # 300a <_IO_stdin_used+0xa>
    135c:	b8 00 00 00 00       	mov    $0x0,%eax
    1361:	e8 3a fd ff ff       	callq  10a0 <printf@plt>
    1366:	bf 08 00 00 00       	mov    $0x8,%edi
    136b:	e8 30 fe ff ff       	callq  11a0 <exit@plt>
    1370:	48 8b 45 e0          	mov    -0x20(%rbp),%rax
    1374:	48 8b 00             	mov    (%rax),%rax
    1377:	48 89 c6             	mov    %rax,%rsi
    137a:	48 8d 3d a6 1c 00 00 	lea    0x1ca6(%rip),%rdi        # 3027 <_IO_stdin_used+0x27>
    1381:	b8 00 00 00 00       	mov    $0x0,%eax
    1386:	e8 15 fd ff ff       	callq  10a0 <printf@plt>
    138b:	bf 08 00 00 00       	mov    $0x8,%edi
    1390:	e8 0b fe ff ff       	callq  11a0 <exit@plt>
    1395:	e8 71 08 00 00       	callq  1c0b <initialize_bomb>
    139a:	48 8d 3d a7 1c 00 00 	lea    0x1ca7(%rip),%rdi        # 3048 <_IO_stdin_used+0x48>
    13a1:	e8 ba fc ff ff       	callq  1060 <puts@plt>
    13a6:	48 8d 3d db 1c 00 00 	lea    0x1cdb(%rip),%rdi        # 3088 <_IO_stdin_used+0x88>
    13ad:	e8 ae fc ff ff       	callq  1060 <puts@plt>
    13b2:	e8 28 09 00 00       	callq  1cdf <read_line>
    13b7:	48 89 45 f8          	mov    %rax,-0x8(%rbp)
    13bb:	48 8b 45 f8          	mov    -0x8(%rbp),%rax
    13bf:	48 89 c7             	mov    %rax,%rdi
    13c2:	e8 ca 00 00 00       	callq  1491 <phase_1>
    13c7:	e8 b8 0a 00 00       	callq  1e84 <phase_defused>
    13cc:	48 8d 3d e5 1c 00 00 	lea    0x1ce5(%rip),%rdi        # 30b8 <_IO_stdin_used+0xb8>
    13d3:	e8 88 fc ff ff       	callq  1060 <puts@plt>
    13d8:	e8 02 09 00 00       	callq  1cdf <read_line>
    13dd:	48 89 45 f8          	mov    %rax,-0x8(%rbp)
    13e1:	48 8b 45 f8          	mov    -0x8(%rbp),%rax
    13e5:	48 89 c7             	mov    %rax,%rdi
    13e8:	e8 cf 00 00 00       	callq  14bc <phase_2>
    13ed:	e8 92 0a 00 00       	callq  1e84 <phase_defused>
    13f2:	48 8d 3d e8 1c 00 00 	lea    0x1ce8(%rip),%rdi        # 30e1 <_IO_stdin_used+0xe1>
    13f9:	e8 62 fc ff ff       	callq  1060 <puts@plt>
    13fe:	e8 dc 08 00 00       	callq  1cdf <read_line>
    1403:	48 89 45 f8          	mov    %rax,-0x8(%rbp)
    1407:	48 8b 45 f8          	mov    -0x8(%rbp),%rax
    140b:	48 89 c7             	mov    %rax,%rdi
    140e:	e8 0c 01 00 00       	callq  151f <phase_3>
    1413:	e8 6c 0a 00 00       	callq  1e84 <phase_defused>
    1418:	48 8d 3d e0 1c 00 00 	lea    0x1ce0(%rip),%rdi        # 30ff <_IO_stdin_used+0xff>
    141f:	e8 3c fc ff ff       	callq  1060 <puts@plt>
    1424:	e8 b6 08 00 00       	callq  1cdf <read_line>
    1429:	48 89 45 f8          	mov    %rax,-0x8(%rbp)
    142d:	48 8b 45 f8          	mov    -0x8(%rbp),%rax
    1431:	48 89 c7             	mov    %rax,%rdi
    1434:	e8 a1 02 00 00       	callq  16da <phase_4>
    1439:	e8 46 0a 00 00       	callq  1e84 <phase_defused>
    143e:	48 8d 3d cb 1c 00 00 	lea    0x1ccb(%rip),%rdi        # 3110 <_IO_stdin_used+0x110>
    1445:	e8 16 fc ff ff       	callq  1060 <puts@plt>
    144a:	e8 90 08 00 00       	callq  1cdf <read_line>
    144f:	48 89 45 f8          	mov    %rax,-0x8(%rbp)
    1453:	48 8b 45 f8          	mov    -0x8(%rbp),%rax
    1457:	48 89 c7             	mov    %rax,%rdi
    145a:	e8 ee 02 00 00       	callq  174d <phase_5>
    145f:	e8 20 0a 00 00       	callq  1e84 <phase_defused>
    1464:	48 8d 3d c9 1c 00 00 	lea    0x1cc9(%rip),%rdi        # 3134 <_IO_stdin_used+0x134>
    146b:	e8 f0 fb ff ff       	callq  1060 <puts@plt>
    1470:	e8 6a 08 00 00       	callq  1cdf <read_line>
    1475:	48 89 45 f8          	mov    %rax,-0x8(%rbp)
    1479:	48 8b 45 f8          	mov    -0x8(%rbp),%rax
    147d:	48 89 c7             	mov    %rax,%rdi
    1480:	e8 69 03 00 00       	callq  17ee <phase_6>
    1485:	e8 fa 09 00 00       	callq  1e84 <phase_defused>
    148a:	b8 00 00 00 00       	mov    $0x0,%eax
    148f:	c9                   	leaveq 
    1490:	c3                   	retq   

0000000000001491 <phase_1>:
    1491:	55                   	push   %rbp
    1492:	48 89 e5             	mov    %rsp,%rbp
    1495:	48 83 ec 10          	sub    $0x10,%rsp
    1499:	48 89 7d f8          	mov    %rdi,-0x8(%rbp)
    149d:	48 8b 45 f8          	mov    -0x8(%rbp),%rax
    14a1:	48 8d 35 b0 1c 00 00 	lea    0x1cb0(%rip),%rsi        # 3158 <_IO_stdin_used+0x158>
    14a8:	48 89 c7             	mov    %rax,%rdi
    14ab:	e8 da 06 00 00       	callq  1b8a <strings_not_equal>
    14b0:	85 c0                	test   %eax,%eax
    14b2:	74 05                	je     14b9 <phase_1+0x28>
    14b4:	e8 a5 09 00 00       	callq  1e5e <explode_bomb>
    14b9:	90                   	nop
    14ba:	c9                   	leaveq 
    14bb:	c3                   	retq   

00000000000014bc <phase_2>:
    14bc:	55                   	push   %rbp
    14bd:	48 89 e5             	mov    %rsp,%rbp
    14c0:	48 83 ec 30          	sub    $0x30,%rsp
    14c4:	48 89 7d d8          	mov    %rdi,-0x28(%rbp)
    14c8:	48 8d 55 e0          	lea    -0x20(%rbp),%rdx
    14cc:	48 8b 45 d8          	mov    -0x28(%rbp),%rax
    14d0:	48 89 d6             	mov    %rdx,%rsi
    14d3:	48 89 c7             	mov    %rax,%rdi
    14d6:	e8 12 06 00 00       	callq  1aed <read_six_numbers>
    14db:	8b 45 e0             	mov    -0x20(%rbp),%eax
    14de:	83 f8 01             	cmp    $0x1,%eax
    14e1:	74 05                	je     14e8 <phase_2+0x2c>
    14e3:	e8 76 09 00 00       	callq  1e5e <explode_bomb>
    14e8:	c7 45 fc 01 00 00 00 	movl   $0x1,-0x4(%rbp)
    14ef:	eb 24                	jmp    1515 <phase_2+0x59>
    14f1:	8b 45 fc             	mov    -0x4(%rbp),%eax
    14f4:	48 98                	cltq   
    14f6:	8b 54 85 e0          	mov    -0x20(%rbp,%rax,4),%edx
    14fa:	8b 45 fc             	mov    -0x4(%rbp),%eax
    14fd:	83 e8 01             	sub    $0x1,%eax
    1500:	48 98                	cltq   
    1502:	8b 44 85 e0          	mov    -0x20(%rbp,%rax,4),%eax
    1506:	01 c0                	add    %eax,%eax
    1508:	39 c2                	cmp    %eax,%edx
    150a:	74 05                	je     1511 <phase_2+0x55>
    150c:	e8 4d 09 00 00       	callq  1e5e <explode_bomb>
    1511:	83 45 fc 01          	addl   $0x1,-0x4(%rbp)
    1515:	83 7d fc 05          	cmpl   $0x5,-0x4(%rbp)
    1519:	7e d6                	jle    14f1 <phase_2+0x35>
    151b:	90                   	nop
    151c:	90                   	nop
    151d:	c9                   	leaveq 
    151e:	c3                   	retq   

000000000000151f <phase_3>:
    151f:	55                   	push   %rbp
    1520:	48 89 e5             	mov    %rsp,%rbp
    1523:	48 83 ec 30          	sub    $0x30,%rsp
    1527:	48 89 7d d8          	mov    %rdi,-0x28(%rbp)
    152b:	c7 45 f8 00 00 00 00 	movl   $0x0,-0x8(%rbp)
    1532:	48 8d 75 f0          	lea    -0x10(%rbp),%rsi
    1536:	48 8d 4d ef          	lea    -0x11(%rbp),%rcx
    153a:	48 8d 55 f4          	lea    -0xc(%rbp),%rdx
    153e:	48 8b 45 d8          	mov    -0x28(%rbp),%rax
    1542:	49 89 f0             	mov    %rsi,%r8
    1545:	48 8d 35 32 1c 00 00 	lea    0x1c32(%rip),%rsi        # 317e <_IO_stdin_used+0x17e>
    154c:	48 89 c7             	mov    %rax,%rdi
    154f:	b8 00 00 00 00       	mov    $0x0,%eax
    1554:	e8 f7 fb ff ff       	callq  1150 <__isoc99_sscanf@plt>
    1559:	89 45 f8             	mov    %eax,-0x8(%rbp)
    155c:	83 7d f8 02          	cmpl   $0x2,-0x8(%rbp)
    1560:	7f 05                	jg     1567 <phase_3+0x48>
    1562:	e8 f7 08 00 00       	callq  1e5e <explode_bomb>
    1567:	8b 45 f4             	mov    -0xc(%rbp),%eax
    156a:	83 f8 07             	cmp    $0x7,%eax
    156d:	0f 87 dc 00 00 00    	ja     164f <phase_3+0x130>
    1573:	89 c0                	mov    %eax,%eax
    1575:	48 8d 14 85 00 00 00 	lea    0x0(,%rax,4),%rdx
    157c:	00 
    157d:	48 8d 05 04 1c 00 00 	lea    0x1c04(%rip),%rax        # 3188 <_IO_stdin_used+0x188>
    1584:	8b 04 02             	mov    (%rdx,%rax,1),%eax
    1587:	48 98                	cltq   
    1589:	48 8d 15 f8 1b 00 00 	lea    0x1bf8(%rip),%rdx        # 3188 <_IO_stdin_used+0x188>
    1590:	48 01 d0             	add    %rdx,%rax
    1593:	ff e0                	jmpq   *%rax
    1595:	c6 45 ff 6d          	movb   $0x6d,-0x1(%rbp)
    1599:	8b 45 f0             	mov    -0x10(%rbp),%eax
    159c:	3d aa 02 00 00       	cmp    $0x2aa,%eax
    15a1:	0f 84 b3 00 00 00    	je     165a <phase_3+0x13b>
    15a7:	e8 b2 08 00 00       	callq  1e5e <explode_bomb>
    15ac:	e9 a9 00 00 00       	jmpq   165a <phase_3+0x13b>
    15b1:	c6 45 ff 65          	movb   $0x65,-0x1(%rbp)
    15b5:	8b 45 f0             	mov    -0x10(%rbp),%eax
    15b8:	3d 5b 02 00 00       	cmp    $0x25b,%eax
    15bd:	0f 84 9a 00 00 00    	je     165d <phase_3+0x13e>
    15c3:	e8 96 08 00 00       	callq  1e5e <explode_bomb>
    15c8:	e9 90 00 00 00       	jmpq   165d <phase_3+0x13e>
    15cd:	c6 45 ff 6e          	movb   $0x6e,-0x1(%rbp)
    15d1:	8b 45 f0             	mov    -0x10(%rbp),%eax
    15d4:	3d 6f 02 00 00       	cmp    $0x26f,%eax
    15d9:	0f 84 81 00 00 00    	je     1660 <phase_3+0x141>
    15df:	e8 7a 08 00 00       	callq  1e5e <explode_bomb>
    15e4:	eb 7a                	jmp    1660 <phase_3+0x141>
    15e6:	c6 45 ff 6d          	movb   $0x6d,-0x1(%rbp)
    15ea:	8b 45 f0             	mov    -0x10(%rbp),%eax
    15ed:	3d f7 01 00 00       	cmp    $0x1f7,%eax
    15f2:	74 6f                	je     1663 <phase_3+0x144>
    15f4:	e8 65 08 00 00       	callq  1e5e <explode_bomb>
    15f9:	eb 68                	jmp    1663 <phase_3+0x144>
    15fb:	c6 45 ff 68          	movb   $0x68,-0x1(%rbp)
    15ff:	8b 45 f0             	mov    -0x10(%rbp),%eax
    1602:	3d d6 03 00 00       	cmp    $0x3d6,%eax
    1607:	74 5d                	je     1666 <phase_3+0x147>
    1609:	e8 50 08 00 00       	callq  1e5e <explode_bomb>
    160e:	eb 56                	jmp    1666 <phase_3+0x147>
    1610:	c6 45 ff 78          	movb   $0x78,-0x1(%rbp)
    1614:	8b 45 f0             	mov    -0x10(%rbp),%eax
    1617:	3d a2 02 00 00       	cmp    $0x2a2,%eax
    161c:	74 4b                	je     1669 <phase_3+0x14a>
    161e:	e8 3b 08 00 00       	callq  1e5e <explode_bomb>
    1623:	eb 44                	jmp    1669 <phase_3+0x14a>
    1625:	c6 45 ff 6b          	movb   $0x6b,-0x1(%rbp)
    1629:	8b 45 f0             	mov    -0x10(%rbp),%eax
    162c:	3d c8 03 00 00       	cmp    $0x3c8,%eax
    1631:	74 39                	je     166c <phase_3+0x14d>
    1633:	e8 26 08 00 00       	callq  1e5e <explode_bomb>
    1638:	eb 32                	jmp    166c <phase_3+0x14d>
    163a:	c6 45 ff 76          	movb   $0x76,-0x1(%rbp)
    163e:	8b 45 f0             	mov    -0x10(%rbp),%eax
    1641:	3d 7b 02 00 00       	cmp    $0x27b,%eax
    1646:	74 27                	je     166f <phase_3+0x150>
    1648:	e8 11 08 00 00       	callq  1e5e <explode_bomb>
    164d:	eb 20                	jmp    166f <phase_3+0x150>
    164f:	c6 45 ff 73          	movb   $0x73,-0x1(%rbp)
    1653:	e8 06 08 00 00       	callq  1e5e <explode_bomb>
    1658:	eb 16                	jmp    1670 <phase_3+0x151>
    165a:	90                   	nop
    165b:	eb 13                	jmp    1670 <phase_3+0x151>
    165d:	90                   	nop
    165e:	eb 10                	jmp    1670 <phase_3+0x151>
    1660:	90                   	nop
    1661:	eb 0d                	jmp    1670 <phase_3+0x151>
    1663:	90                   	nop
    1664:	eb 0a                	jmp    1670 <phase_3+0x151>
    1666:	90                   	nop
    1667:	eb 07                	jmp    1670 <phase_3+0x151>
    1669:	90                   	nop
    166a:	eb 04                	jmp    1670 <phase_3+0x151>
    166c:	90                   	nop
    166d:	eb 01                	jmp    1670 <phase_3+0x151>
    166f:	90                   	nop
    1670:	0f b6 45 ef          	movzbl -0x11(%rbp),%eax
    1674:	38 45 ff             	cmp    %al,-0x1(%rbp)
    1677:	74 05                	je     167e <phase_3+0x15f>
    1679:	e8 e0 07 00 00       	callq  1e5e <explode_bomb>
    167e:	90                   	nop
    167f:	c9                   	leaveq 
    1680:	c3                   	retq   

0000000000001681 <func4>:
    1681:	55                   	push   %rbp
    1682:	48 89 e5             	mov    %rsp,%rbp
    1685:	53                   	push   %rbx
    1686:	48 83 ec 18          	sub    $0x18,%rsp
    168a:	89 7d ec             	mov    %edi,-0x14(%rbp)
    168d:	89 75 e8             	mov    %esi,-0x18(%rbp)
    1690:	83 7d ec 00          	cmpl   $0x0,-0x14(%rbp)
    1694:	7f 07                	jg     169d <func4+0x1c>
    1696:	b8 00 00 00 00       	mov    $0x0,%eax
    169b:	eb 37                	jmp    16d4 <func4+0x53>
    169d:	83 7d ec 01          	cmpl   $0x1,-0x14(%rbp)
    16a1:	75 05                	jne    16a8 <func4+0x27>
    16a3:	8b 45 e8             	mov    -0x18(%rbp),%eax
    16a6:	eb 2c                	jmp    16d4 <func4+0x53>
    16a8:	8b 45 ec             	mov    -0x14(%rbp),%eax
    16ab:	8d 50 ff             	lea    -0x1(%rax),%edx
    16ae:	8b 45 e8             	mov    -0x18(%rbp),%eax
    16b1:	89 c6                	mov    %eax,%esi
    16b3:	89 d7                	mov    %edx,%edi
    16b5:	e8 c7 ff ff ff       	callq  1681 <func4>
    16ba:	8b 55 e8             	mov    -0x18(%rbp),%edx
    16bd:	8d 1c 10             	lea    (%rax,%rdx,1),%ebx
    16c0:	8b 45 ec             	mov    -0x14(%rbp),%eax
    16c3:	8d 50 fe             	lea    -0x2(%rax),%edx
    16c6:	8b 45 e8             	mov    -0x18(%rbp),%eax
    16c9:	89 c6                	mov    %eax,%esi
    16cb:	89 d7                	mov    %edx,%edi
    16cd:	e8 af ff ff ff       	callq  1681 <func4>
    16d2:	01 d8                	add    %ebx,%eax
    16d4:	48 8b 5d f8          	mov    -0x8(%rbp),%rbx
    16d8:	c9                   	leaveq 
    16d9:	c3                   	retq   

00000000000016da <phase_4>:
    16da:	55                   	push   %rbp
    16db:	48 89 e5             	mov    %rsp,%rbp
    16de:	48 83 ec 30          	sub    $0x30,%rsp
    16e2:	48 89 7d d8          	mov    %rdi,-0x28(%rbp)
    16e6:	48 8d 4d f0          	lea    -0x10(%rbp),%rcx
    16ea:	48 8d 55 ec          	lea    -0x14(%rbp),%rdx
    16ee:	48 8b 45 d8          	mov    -0x28(%rbp),%rax
    16f2:	48 8d 35 af 1a 00 00 	lea    0x1aaf(%rip),%rsi        # 31a8 <_IO_stdin_used+0x1a8>
    16f9:	48 89 c7             	mov    %rax,%rdi
    16fc:	b8 00 00 00 00       	mov    $0x0,%eax
    1701:	e8 4a fa ff ff       	callq  1150 <__isoc99_sscanf@plt>
    1706:	89 45 fc             	mov    %eax,-0x4(%rbp)
    1709:	83 7d fc 02          	cmpl   $0x2,-0x4(%rbp)
    170d:	75 10                	jne    171f <phase_4+0x45>
    170f:	8b 45 f0             	mov    -0x10(%rbp),%eax
    1712:	83 f8 01             	cmp    $0x1,%eax
    1715:	7e 08                	jle    171f <phase_4+0x45>
    1717:	8b 45 f0             	mov    -0x10(%rbp),%eax
    171a:	83 f8 04             	cmp    $0x4,%eax
    171d:	7e 05                	jle    1724 <phase_4+0x4a>
    171f:	e8 3a 07 00 00       	callq  1e5e <explode_bomb> ****************
    1724:	c7 45 f8 08 00 00 00 	movl   $0x8,-0x8(%rbp)
    172b:	8b 55 f0             	mov    -0x10(%rbp),%edx
    172e:	8b 45 f8             	mov    -0x8(%rbp),%eax
    1731:	89 d6                	mov    %edx,%esi
    1733:	89 c7                	mov    %eax,%edi
    1735:	e8 47 ff ff ff       	callq  1681 <func4>
    173a:	89 45 f4             	mov    %eax,-0xc(%rbp)
    173d:	8b 45 ec             	mov    -0x14(%rbp),%eax
    1740:	39 45 f4             	cmp    %eax,-0xc(%rbp)
    1743:	74 05                	je     174a <phase_4+0x70>
    1745:	e8 14 07 00 00       	callq  1e5e <explode_bomb>
    174a:	90                   	nop
    174b:	c9                   	leaveq 
    174c:	c3                   	retq   

000000000000174d <phase_5>:
    174d:	55                   	push   %rbp
    174e:	48 89 e5             	mov    %rsp,%rbp
    1751:	48 83 ec 30          	sub    $0x30,%rsp
    1755:	48 89 7d d8          	mov    %rdi,-0x28(%rbp)
    1759:	48 8d 4d e8          	lea    -0x18(%rbp),%rcx
    175d:	48 8d 55 ec          	lea    -0x14(%rbp),%rdx
    1761:	48 8b 45 d8          	mov    -0x28(%rbp),%rax
    1765:	48 8d 35 3c 1a 00 00 	lea    0x1a3c(%rip),%rsi        # 31a8 <_IO_stdin_used+0x1a8>
    176c:	48 89 c7             	mov    %rax,%rdi
    176f:	b8 00 00 00 00       	mov    $0x0,%eax
    1774:	e8 d7 f9 ff ff       	callq  1150 <__isoc99_sscanf@plt>
    1779:	89 45 f4             	mov    %eax,-0xc(%rbp)
    177c:	83 7d f4 01          	cmpl   $0x1,-0xc(%rbp)
    1780:	7f 05                	jg     1787 <phase_5+0x3a>
    1782:	e8 d7 06 00 00       	callq  1e5e <explode_bomb>
    1787:	8b 45 ec             	mov    -0x14(%rbp),%eax
    178a:	83 e0 0f             	and    $0xf,%eax
    178d:	89 45 ec             	mov    %eax,-0x14(%rbp)
    1790:	8b 45 ec             	mov    -0x14(%rbp),%eax
    1793:	89 45 f0             	mov    %eax,-0x10(%rbp)
    1796:	8b 45 f0             	mov    -0x10(%rbp),%eax
    1799:	89 45 ec             	mov    %eax,-0x14(%rbp)
    179c:	c7 45 fc 00 00 00 00 	movl   $0x0,-0x4(%rbp)
    17a3:	c7 45 f8 00 00 00 00 	movl   $0x0,-0x8(%rbp)
    17aa:	eb 24                	jmp    17d0 <phase_5+0x83>
    17ac:	83 45 fc 01          	addl   $0x1,-0x4(%rbp)
    17b0:	8b 45 ec             	mov    -0x14(%rbp),%eax
    17b3:	48 98                	cltq   
    17b5:	48 8d 14 85 00 00 00 	lea    0x0(,%rax,4),%rdx
    17bc:	00 
    17bd:	48 8d 05 7c 3a 00 00 	lea    0x3a7c(%rip),%rax        # 5240 <array.0>
    17c4:	8b 04 02             	mov    (%rdx,%rax,1),%eax
    17c7:	89 45 ec             	mov    %eax,-0x14(%rbp)
    17ca:	8b 45 ec             	mov    -0x14(%rbp),%eax
    17cd:	01 45 f8             	add    %eax,-0x8(%rbp)
    17d0:	8b 45 ec             	mov    -0x14(%rbp),%eax
    17d3:	83 f8 0f             	cmp    $0xf,%eax
    17d6:	75 d4                	jne    17ac <phase_5+0x5f>
    17d8:	83 7d fc 0f          	cmpl   $0xf,-0x4(%rbp)
    17dc:	75 08                	jne    17e6 <phase_5+0x99>
    17de:	8b 45 e8             	mov    -0x18(%rbp),%eax
    17e1:	39 45 f8             	cmp    %eax,-0x8(%rbp)
    17e4:	74 05                	je     17eb <phase_5+0x9e>
    17e6:	e8 73 06 00 00       	callq  1e5e <explode_bomb>
    17eb:	90                   	nop
    17ec:	c9                   	leaveq 
    17ed:	c3                   	retq   

00000000000017ee <phase_6>:
    17ee:	55                   	push   %rbp
    17ef:	48 89 e5             	mov    %rsp,%rbp
    17f2:	48 83 ec 70          	sub    $0x70,%rsp
    17f6:	48 89 7d 98          	mov    %rdi,-0x68(%rbp)
    17fa:	48 8d 05 bf 3a 00 00 	lea    0x3abf(%rip),%rax        # 52c0 <node1>
    1801:	48 89 45 e8          	mov    %rax,-0x18(%rbp)
    1805:	48 8d 55 d0          	lea    -0x30(%rbp),%rdx
    1809:	48 8b 45 98          	mov    -0x68(%rbp),%rax
    180d:	48 89 d6             	mov    %rdx,%rsi
    1810:	48 89 c7             	mov    %rax,%rdi
    1813:	e8 d5 02 00 00       	callq  1aed <read_six_numbers>
    1818:	c7 45 f4 00 00 00 00 	movl   $0x0,-0xc(%rbp)
    181f:	eb 54                	jmp    1875 <phase_6+0x87>
    1821:	8b 45 f4             	mov    -0xc(%rbp),%eax
    1824:	48 98                	cltq   
    1826:	8b 44 85 d0          	mov    -0x30(%rbp,%rax,4),%eax
    182a:	85 c0                	test   %eax,%eax
    182c:	7e 0e                	jle    183c <phase_6+0x4e>
    182e:	8b 45 f4             	mov    -0xc(%rbp),%eax
    1831:	48 98                	cltq   
    1833:	8b 44 85 d0          	mov    -0x30(%rbp,%rax,4),%eax
    1837:	83 f8 06             	cmp    $0x6,%eax
    183a:	7e 05                	jle    1841 <phase_6+0x53>
    183c:	e8 1d 06 00 00       	callq  1e5e <explode_bomb>
    1841:	8b 45 f4             	mov    -0xc(%rbp),%eax
    1844:	83 c0 01             	add    $0x1,%eax
    1847:	89 45 f0             	mov    %eax,-0x10(%rbp)
    184a:	eb 1f                	jmp    186b <phase_6+0x7d>
    184c:	8b 45 f4             	mov    -0xc(%rbp),%eax
    184f:	48 98                	cltq   
    1851:	8b 54 85 d0          	mov    -0x30(%rbp,%rax,4),%edx
    1855:	8b 45 f0             	mov    -0x10(%rbp),%eax
    1858:	48 98                	cltq   
    185a:	8b 44 85 d0          	mov    -0x30(%rbp,%rax,4),%eax
    185e:	39 c2                	cmp    %eax,%edx
    1860:	75 05                	jne    1867 <phase_6+0x79>
    1862:	e8 f7 05 00 00       	callq  1e5e <explode_bomb>
    1867:	83 45 f0 01          	addl   $0x1,-0x10(%rbp)
    186b:	83 7d f0 05          	cmpl   $0x5,-0x10(%rbp)
    186f:	7e db                	jle    184c <phase_6+0x5e>
    1871:	83 45 f4 01          	addl   $0x1,-0xc(%rbp)
    1875:	83 7d f4 05          	cmpl   $0x5,-0xc(%rbp)
    1879:	7e a6                	jle    1821 <phase_6+0x33>
    187b:	c7 45 f4 00 00 00 00 	movl   $0x0,-0xc(%rbp)
    1882:	eb 1d                	jmp    18a1 <phase_6+0xb3>
    1884:	8b 45 f4             	mov    -0xc(%rbp),%eax
    1887:	48 98                	cltq   
    1889:	8b 44 85 d0          	mov    -0x30(%rbp,%rax,4),%eax
    188d:	ba 07 00 00 00       	mov    $0x7,%edx
    1892:	29 c2                	sub    %eax,%edx
    1894:	8b 45 f4             	mov    -0xc(%rbp),%eax
    1897:	48 98                	cltq   
    1899:	89 54 85 d0          	mov    %edx,-0x30(%rbp,%rax,4)
    189d:	83 45 f4 01          	addl   $0x1,-0xc(%rbp)
    18a1:	83 7d f4 05          	cmpl   $0x5,-0xc(%rbp)
    18a5:	7e dd                	jle    1884 <phase_6+0x96>
    18a7:	c7 45 f4 00 00 00 00 	movl   $0x0,-0xc(%rbp)
    18ae:	eb 41                	jmp    18f1 <phase_6+0x103>
    18b0:	48 8b 45 e8          	mov    -0x18(%rbp),%rax
    18b4:	48 89 45 f8          	mov    %rax,-0x8(%rbp)
    18b8:	c7 45 f0 01 00 00 00 	movl   $0x1,-0x10(%rbp)
    18bf:	eb 10                	jmp    18d1 <phase_6+0xe3>
    18c1:	48 8b 45 f8          	mov    -0x8(%rbp),%rax
    18c5:	48 8b 40 08          	mov    0x8(%rax),%rax
    18c9:	48 89 45 f8          	mov    %rax,-0x8(%rbp)
    18cd:	83 45 f0 01          	addl   $0x1,-0x10(%rbp)
    18d1:	8b 45 f4             	mov    -0xc(%rbp),%eax
    18d4:	48 98                	cltq   
    18d6:	8b 44 85 d0          	mov    -0x30(%rbp,%rax,4),%eax
    18da:	39 45 f0             	cmp    %eax,-0x10(%rbp)
    18dd:	7c e2                	jl     18c1 <phase_6+0xd3>
    18df:	8b 45 f4             	mov    -0xc(%rbp),%eax
    18e2:	48 98                	cltq   
    18e4:	48 8b 55 f8          	mov    -0x8(%rbp),%rdx
    18e8:	48 89 54 c5 a0       	mov    %rdx,-0x60(%rbp,%rax,8)
    18ed:	83 45 f4 01          	addl   $0x1,-0xc(%rbp)
    18f1:	83 7d f4 05          	cmpl   $0x5,-0xc(%rbp)
    18f5:	7e b9                	jle    18b0 <phase_6+0xc2>
    18f7:	48 8b 45 a0          	mov    -0x60(%rbp),%rax
    18fb:	48 89 45 e8          	mov    %rax,-0x18(%rbp)
    18ff:	48 8b 45 e8          	mov    -0x18(%rbp),%rax
    1903:	48 89 45 f8          	mov    %rax,-0x8(%rbp)
    1907:	c7 45 f4 01 00 00 00 	movl   $0x1,-0xc(%rbp)
    190e:	eb 22                	jmp    1932 <phase_6+0x144>
    1910:	8b 45 f4             	mov    -0xc(%rbp),%eax
    1913:	48 98                	cltq   
    1915:	48 8b 54 c5 a0       	mov    -0x60(%rbp,%rax,8),%rdx
    191a:	48 8b 45 f8          	mov    -0x8(%rbp),%rax
    191e:	48 89 50 08          	mov    %rdx,0x8(%rax)
    1922:	48 8b 45 f8          	mov    -0x8(%rbp),%rax
    1926:	48 8b 40 08          	mov    0x8(%rax),%rax
    192a:	48 89 45 f8          	mov    %rax,-0x8(%rbp)
    192e:	83 45 f4 01          	addl   $0x1,-0xc(%rbp)
    1932:	83 7d f4 05          	cmpl   $0x5,-0xc(%rbp)
    1936:	7e d8                	jle    1910 <phase_6+0x122>
    1938:	48 8b 45 f8          	mov    -0x8(%rbp),%rax
    193c:	48 c7 40 08 00 00 00 	movq   $0x0,0x8(%rax)
    1943:	00 
    1944:	48 8b 45 e8          	mov    -0x18(%rbp),%rax
    1948:	48 89 45 f8          	mov    %rax,-0x8(%rbp)
    194c:	c7 45 f4 00 00 00 00 	movl   $0x0,-0xc(%rbp)
    1953:	eb 29                	jmp    197e <phase_6+0x190>
    1955:	48 8b 45 f8          	mov    -0x8(%rbp),%rax
    1959:	8b 10                	mov    (%rax),%edx
    195b:	48 8b 45 f8          	mov    -0x8(%rbp),%rax
    195f:	48 8b 40 08          	mov    0x8(%rax),%rax
    1963:	8b 00                	mov    (%rax),%eax
    1965:	39 c2                	cmp    %eax,%edx
    1967:	7d 05                	jge    196e <phase_6+0x180>
    1969:	e8 f0 04 00 00       	callq  1e5e <explode_bomb>
    196e:	48 8b 45 f8          	mov    -0x8(%rbp),%rax
    1972:	48 8b 40 08          	mov    0x8(%rax),%rax
    1976:	48 89 45 f8          	mov    %rax,-0x8(%rbp)
    197a:	83 45 f4 01          	addl   $0x1,-0xc(%rbp)
    197e:	83 7d f4 04          	cmpl   $0x4,-0xc(%rbp)
    1982:	7e d1                	jle    1955 <phase_6+0x167>
    1984:	90                   	nop
    1985:	90                   	nop
    1986:	c9                   	leaveq 
    1987:	c3                   	retq   

0000000000001988 <fun7>:
    1988:	55                   	push   %rbp
    1989:	48 89 e5             	mov    %rsp,%rbp
    198c:	48 83 ec 10          	sub    $0x10,%rsp
    1990:	48 89 7d f8          	mov    %rdi,-0x8(%rbp)
    1994:	89 75 f4             	mov    %esi,-0xc(%rbp)
    1997:	48 83 7d f8 00       	cmpq   $0x0,-0x8(%rbp)
    199c:	75 07                	jne    19a5 <fun7+0x1d>
    199e:	b8 ff ff ff ff       	mov    $0xffffffff,%eax
    19a3:	eb 50                	jmp    19f5 <fun7+0x6d>
    19a5:	48 8b 45 f8          	mov    -0x8(%rbp),%rax
    19a9:	8b 00                	mov    (%rax),%eax
    19ab:	39 45 f4             	cmp    %eax,-0xc(%rbp)
    19ae:	7d 19                	jge    19c9 <fun7+0x41>
    19b0:	48 8b 45 f8          	mov    -0x8(%rbp),%rax
    19b4:	48 8b 40 08          	mov    0x8(%rax),%rax
    19b8:	8b 55 f4             	mov    -0xc(%rbp),%edx
    19bb:	89 d6                	mov    %edx,%esi
    19bd:	48 89 c7             	mov    %rax,%rdi
    19c0:	e8 c3 ff ff ff       	callq  1988 <fun7>
    19c5:	01 c0                	add    %eax,%eax
    19c7:	eb 2c                	jmp    19f5 <fun7+0x6d>
    19c9:	48 8b 45 f8          	mov    -0x8(%rbp),%rax
    19cd:	8b 00                	mov    (%rax),%eax
    19cf:	39 45 f4             	cmp    %eax,-0xc(%rbp)
    19d2:	75 07                	jne    19db <fun7+0x53>
    19d4:	b8 00 00 00 00       	mov    $0x0,%eax
    19d9:	eb 1a                	jmp    19f5 <fun7+0x6d>
    19db:	48 8b 45 f8          	mov    -0x8(%rbp),%rax
    19df:	48 8b 40 10          	mov    0x10(%rax),%rax
    19e3:	8b 55 f4             	mov    -0xc(%rbp),%edx
    19e6:	89 d6                	mov    %edx,%esi
    19e8:	48 89 c7             	mov    %rax,%rdi
    19eb:	e8 98 ff ff ff       	callq  1988 <fun7>
    19f0:	01 c0                	add    %eax,%eax
    19f2:	83 c0 01             	add    $0x1,%eax
    19f5:	c9                   	leaveq 
    19f6:	c3                   	retq   

00000000000019f7 <secret_phase>:
    19f7:	55                   	push   %rbp
    19f8:	48 89 e5             	mov    %rsp,%rbp
    19fb:	48 83 ec 10          	sub    $0x10,%rsp
    19ff:	e8 db 02 00 00       	callq  1cdf <read_line>
    1a04:	48 89 45 f8          	mov    %rax,-0x8(%rbp)
    1a08:	48 8b 45 f8          	mov    -0x8(%rbp),%rax
    1a0c:	48 89 c7             	mov    %rax,%rdi
    1a0f:	e8 6c f7 ff ff       	callq  1180 <atoi@plt>
    1a14:	89 45 f4             	mov    %eax,-0xc(%rbp)
    1a17:	83 7d f4 00          	cmpl   $0x0,-0xc(%rbp)
    1a1b:	7e 09                	jle    1a26 <secret_phase+0x2f>
    1a1d:	81 7d f4 e9 03 00 00 	cmpl   $0x3e9,-0xc(%rbp)
    1a24:	7e 05                	jle    1a2b <secret_phase+0x34>
    1a26:	e8 33 04 00 00       	callq  1e5e <explode_bomb>
    1a2b:	8b 45 f4             	mov    -0xc(%rbp),%eax
    1a2e:	89 c6                	mov    %eax,%esi
    1a30:	48 8d 3d 59 39 00 00 	lea    0x3959(%rip),%rdi        # 5390 <n1>
    1a37:	e8 4c ff ff ff       	callq  1988 <fun7>
    1a3c:	89 45 f0             	mov    %eax,-0x10(%rbp)
    1a3f:	83 7d f0 07          	cmpl   $0x7,-0x10(%rbp)
    1a43:	74 05                	je     1a4a <secret_phase+0x53>
    1a45:	e8 14 04 00 00       	callq  1e5e <explode_bomb>
    1a4a:	48 8d 3d 5f 17 00 00 	lea    0x175f(%rip),%rdi        # 31b0 <_IO_stdin_used+0x1b0>
    1a51:	e8 0a f6 ff ff       	callq  1060 <puts@plt>
    1a56:	e8 29 04 00 00       	callq  1e84 <phase_defused>
    1a5b:	90                   	nop
    1a5c:	c9                   	leaveq 
    1a5d:	c3                   	retq   

0000000000001a5e <sig_handler>:
    1a5e:	55                   	push   %rbp
    1a5f:	48 89 e5             	mov    %rsp,%rbp
    1a62:	48 83 ec 10          	sub    $0x10,%rsp
    1a66:	89 7d fc             	mov    %edi,-0x4(%rbp)
    1a69:	48 8d 3d c8 17 00 00 	lea    0x17c8(%rip),%rdi        # 3238 <_IO_stdin_used+0x238>
    1a70:	e8 eb f5 ff ff       	callq  1060 <puts@plt>
    1a75:	bf 03 00 00 00       	mov    $0x3,%edi
    1a7a:	e8 41 f7 ff ff       	callq  11c0 <sleep@plt>
    1a7f:	48 8d 3d ea 17 00 00 	lea    0x17ea(%rip),%rdi        # 3270 <_IO_stdin_used+0x270>
    1a86:	b8 00 00 00 00       	mov    $0x0,%eax
    1a8b:	e8 10 f6 ff ff       	callq  10a0 <printf@plt>
    1a90:	48 8b 05 29 3d 00 00 	mov    0x3d29(%rip),%rax        # 57c0 <stdout@@GLIBC_2.2.5>
    1a97:	48 89 c7             	mov    %rax,%rdi
    1a9a:	e8 a1 f6 ff ff       	callq  1140 <fflush@plt>
    1a9f:	bf 01 00 00 00       	mov    $0x1,%edi
    1aa4:	e8 17 f7 ff ff       	callq  11c0 <sleep@plt>
    1aa9:	48 8d 3d c8 17 00 00 	lea    0x17c8(%rip),%rdi        # 3278 <_IO_stdin_used+0x278>
    1ab0:	e8 ab f5 ff ff       	callq  1060 <puts@plt>
    1ab5:	bf 10 00 00 00       	mov    $0x10,%edi
    1aba:	e8 e1 f6 ff ff       	callq  11a0 <exit@plt>

0000000000001abf <invalid_phase>:
    1abf:	55                   	push   %rbp
    1ac0:	48 89 e5             	mov    %rsp,%rbp
    1ac3:	48 83 ec 10          	sub    $0x10,%rsp
    1ac7:	48 89 7d f8          	mov    %rdi,-0x8(%rbp)
    1acb:	48 8b 45 f8          	mov    -0x8(%rbp),%rax
    1acf:	48 89 c6             	mov    %rax,%rsi
    1ad2:	48 8d 3d a7 17 00 00 	lea    0x17a7(%rip),%rdi        # 3280 <_IO_stdin_used+0x280>
    1ad9:	b8 00 00 00 00       	mov    $0x0,%eax
    1ade:	e8 bd f5 ff ff       	callq  10a0 <printf@plt>
    1ae3:	bf 08 00 00 00       	mov    $0x8,%edi
    1ae8:	e8 b3 f6 ff ff       	callq  11a0 <exit@plt>

0000000000001aed <read_six_numbers>:
    1aed:	55                   	push   %rbp
    1aee:	48 89 e5             	mov    %rsp,%rbp
    1af1:	48 83 ec 20          	sub    $0x20,%rsp
    1af5:	48 89 7d e8          	mov    %rdi,-0x18(%rbp)
    1af9:	48 89 75 e0          	mov    %rsi,-0x20(%rbp)
    1afd:	48 8b 45 e0          	mov    -0x20(%rbp),%rax
    1b01:	48 8d 78 14          	lea    0x14(%rax),%rdi
    1b05:	48 8b 45 e0          	mov    -0x20(%rbp),%rax
    1b09:	48 8d 70 10          	lea    0x10(%rax),%rsi
    1b0d:	48 8b 45 e0          	mov    -0x20(%rbp),%rax
    1b11:	4c 8d 48 0c          	lea    0xc(%rax),%r9
    1b15:	48 8b 45 e0          	mov    -0x20(%rbp),%rax
    1b19:	4c 8d 40 08          	lea    0x8(%rax),%r8
    1b1d:	48 8b 45 e0          	mov    -0x20(%rbp),%rax
    1b21:	48 8d 48 04          	lea    0x4(%rax),%rcx
    1b25:	48 8b 55 e0          	mov    -0x20(%rbp),%rdx
    1b29:	48 8b 45 e8          	mov    -0x18(%rbp),%rax
    1b2d:	57                   	push   %rdi
    1b2e:	56                   	push   %rsi
    1b2f:	48 8d 35 5b 17 00 00 	lea    0x175b(%rip),%rsi        # 3291 <_IO_stdin_used+0x291>
    1b36:	48 89 c7             	mov    %rax,%rdi
    1b39:	b8 00 00 00 00       	mov    $0x0,%eax
    1b3e:	e8 0d f6 ff ff       	callq  1150 <__isoc99_sscanf@plt>
    1b43:	48 83 c4 10          	add    $0x10,%rsp
    1b47:	89 45 fc             	mov    %eax,-0x4(%rbp)
    1b4a:	83 7d fc 05          	cmpl   $0x5,-0x4(%rbp)
    1b4e:	7f 05                	jg     1b55 <read_six_numbers+0x68>
    1b50:	e8 09 03 00 00       	callq  1e5e <explode_bomb>
    1b55:	90                   	nop
    1b56:	c9                   	leaveq 
    1b57:	c3                   	retq   

0000000000001b58 <string_length>:
    1b58:	55                   	push   %rbp
    1b59:	48 89 e5             	mov    %rsp,%rbp
    1b5c:	48 89 7d e8          	mov    %rdi,-0x18(%rbp)
    1b60:	48 8b 45 e8          	mov    -0x18(%rbp),%rax
    1b64:	48 89 45 f0          	mov    %rax,-0x10(%rbp)
    1b68:	c7 45 fc 00 00 00 00 	movl   $0x0,-0x4(%rbp)
    1b6f:	eb 09                	jmp    1b7a <string_length+0x22>
    1b71:	48 83 45 f0 01       	addq   $0x1,-0x10(%rbp)
    1b76:	83 45 fc 01          	addl   $0x1,-0x4(%rbp)
    1b7a:	48 8b 45 f0          	mov    -0x10(%rbp),%rax
    1b7e:	0f b6 00             	movzbl (%rax),%eax
    1b81:	84 c0                	test   %al,%al
    1b83:	75 ec                	jne    1b71 <string_length+0x19>
    1b85:	8b 45 fc             	mov    -0x4(%rbp),%eax
    1b88:	5d                   	pop    %rbp
    1b89:	c3                   	retq   

0000000000001b8a <strings_not_equal>:
    1b8a:	55                   	push   %rbp
    1b8b:	48 89 e5             	mov    %rsp,%rbp
    1b8e:	53                   	push   %rbx
    1b8f:	48 83 ec 20          	sub    $0x20,%rsp
    1b93:	48 89 7d e0          	mov    %rdi,-0x20(%rbp)
    1b97:	48 89 75 d8          	mov    %rsi,-0x28(%rbp)
    1b9b:	48 8b 45 e0          	mov    -0x20(%rbp),%rax
    1b9f:	48 89 c7             	mov    %rax,%rdi
    1ba2:	e8 b1 ff ff ff       	callq  1b58 <string_length>
    1ba7:	89 c3                	mov    %eax,%ebx
    1ba9:	48 8b 45 d8          	mov    -0x28(%rbp),%rax
    1bad:	48 89 c7             	mov    %rax,%rdi
    1bb0:	e8 a3 ff ff ff       	callq  1b58 <string_length>
    1bb5:	39 c3                	cmp    %eax,%ebx
    1bb7:	74 07                	je     1bc0 <strings_not_equal+0x36>
    1bb9:	b8 01 00 00 00       	mov    $0x1,%eax
    1bbe:	eb 45                	jmp    1c05 <strings_not_equal+0x7b>
    1bc0:	48 8b 45 e0          	mov    -0x20(%rbp),%rax
    1bc4:	48 89 45 f0          	mov    %rax,-0x10(%rbp)
    1bc8:	48 8b 45 d8          	mov    -0x28(%rbp),%rax
    1bcc:	48 89 45 e8          	mov    %rax,-0x18(%rbp)
    1bd0:	eb 23                	jmp    1bf5 <strings_not_equal+0x6b>
    1bd2:	48 8b 45 f0          	mov    -0x10(%rbp),%rax
    1bd6:	0f b6 10             	movzbl (%rax),%edx
    1bd9:	48 8b 45 e8          	mov    -0x18(%rbp),%rax
    1bdd:	0f b6 00             	movzbl (%rax),%eax
    1be0:	38 c2                	cmp    %al,%dl
    1be2:	74 07                	je     1beb <strings_not_equal+0x61>
    1be4:	b8 01 00 00 00       	mov    $0x1,%eax
    1be9:	eb 1a                	jmp    1c05 <strings_not_equal+0x7b>
    1beb:	48 83 45 f0 01       	addq   $0x1,-0x10(%rbp)
    1bf0:	48 83 45 e8 01       	addq   $0x1,-0x18(%rbp)
    1bf5:	48 8b 45 f0          	mov    -0x10(%rbp),%rax
    1bf9:	0f b6 00             	movzbl (%rax),%eax
    1bfc:	84 c0                	test   %al,%al
    1bfe:	75 d2                	jne    1bd2 <strings_not_equal+0x48>
    1c00:	b8 00 00 00 00       	mov    $0x0,%eax
    1c05:	48 8b 5d f8          	mov    -0x8(%rbp),%rbx
    1c09:	c9                   	leaveq 
    1c0a:	c3                   	retq   

0000000000001c0b <initialize_bomb>:
    1c0b:	55                   	push   %rbp
    1c0c:	48 89 e5             	mov    %rsp,%rbp
    1c0f:	48 8d 35 48 fe ff ff 	lea    -0x1b8(%rip),%rsi        # 1a5e <sig_handler>
    1c16:	bf 02 00 00 00       	mov    $0x2,%edi
    1c1b:	e8 e0 f4 ff ff       	callq  1100 <signal@plt>
    1c20:	90                   	nop
    1c21:	5d                   	pop    %rbp
    1c22:	c3                   	retq   

0000000000001c23 <initialize_bomb_solve>:
    1c23:	55                   	push   %rbp
    1c24:	48 89 e5             	mov    %rsp,%rbp
    1c27:	90                   	nop
    1c28:	5d                   	pop    %rbp
    1c29:	c3                   	retq   

0000000000001c2a <blank_line>:
    1c2a:	55                   	push   %rbp
    1c2b:	48 89 e5             	mov    %rsp,%rbp
    1c2e:	48 83 ec 10          	sub    $0x10,%rsp
    1c32:	48 89 7d f8          	mov    %rdi,-0x8(%rbp)
    1c36:	eb 37                	jmp    1c6f <blank_line+0x45>
    1c38:	e8 93 f5 ff ff       	callq  11d0 <__ctype_b_loc@plt>
    1c3d:	48 8b 08             	mov    (%rax),%rcx
    1c40:	48 8b 45 f8          	mov    -0x8(%rbp),%rax
    1c44:	48 8d 50 01          	lea    0x1(%rax),%rdx
    1c48:	48 89 55 f8          	mov    %rdx,-0x8(%rbp)
    1c4c:	0f b6 00             	movzbl (%rax),%eax
    1c4f:	48 0f be c0          	movsbq %al,%rax
    1c53:	48 01 c0             	add    %rax,%rax
    1c56:	48 01 c8             	add    %rcx,%rax
    1c59:	0f b7 00             	movzwl (%rax),%eax
    1c5c:	0f b7 c0             	movzwl %ax,%eax
    1c5f:	25 00 20 00 00       	and    $0x2000,%eax
    1c64:	85 c0                	test   %eax,%eax
    1c66:	75 07                	jne    1c6f <blank_line+0x45>
    1c68:	b8 00 00 00 00       	mov    $0x0,%eax
    1c6d:	eb 10                	jmp    1c7f <blank_line+0x55>
    1c6f:	48 8b 45 f8          	mov    -0x8(%rbp),%rax
    1c73:	0f b6 00             	movzbl (%rax),%eax
    1c76:	84 c0                	test   %al,%al
    1c78:	75 be                	jne    1c38 <blank_line+0xe>
    1c7a:	b8 01 00 00 00       	mov    $0x1,%eax
    1c7f:	c9                   	leaveq 
    1c80:	c3                   	retq   

0000000000001c81 <skip>:
    1c81:	55                   	push   %rbp
    1c82:	48 89 e5             	mov    %rsp,%rbp
    1c85:	48 83 ec 10          	sub    $0x10,%rsp
    1c89:	48 8b 15 60 3b 00 00 	mov    0x3b60(%rip),%rdx        # 57f0 <infile>
    1c90:	8b 05 aa 41 00 00    	mov    0x41aa(%rip),%eax        # 5e40 <num_input_strings>
    1c96:	48 63 c8             	movslq %eax,%rcx
    1c99:	48 89 c8             	mov    %rcx,%rax
    1c9c:	48 c1 e0 02          	shl    $0x2,%rax
    1ca0:	48 01 c8             	add    %rcx,%rax
    1ca3:	48 c1 e0 04          	shl    $0x4,%rax
    1ca7:	48 8d 0d 52 3b 00 00 	lea    0x3b52(%rip),%rcx        # 5800 <input_strings>
    1cae:	48 01 c8             	add    %rcx,%rax
    1cb1:	be 50 00 00 00       	mov    $0x50,%esi
    1cb6:	48 89 c7             	mov    %rax,%rdi
    1cb9:	e8 22 f4 ff ff       	callq  10e0 <fgets@plt>
    1cbe:	48 89 45 f8          	mov    %rax,-0x8(%rbp)
    1cc2:	48 83 7d f8 00       	cmpq   $0x0,-0x8(%rbp)
    1cc7:	74 10                	je     1cd9 <skip+0x58>
    1cc9:	48 8b 45 f8          	mov    -0x8(%rbp),%rax
    1ccd:	48 89 c7             	mov    %rax,%rdi
    1cd0:	e8 55 ff ff ff       	callq  1c2a <blank_line>
    1cd5:	85 c0                	test   %eax,%eax
    1cd7:	75 b0                	jne    1c89 <skip+0x8>
    1cd9:	48 8b 45 f8          	mov    -0x8(%rbp),%rax
    1cdd:	c9                   	leaveq 
    1cde:	c3                   	retq   

0000000000001cdf <read_line>:
    1cdf:	55                   	push   %rbp
    1ce0:	48 89 e5             	mov    %rsp,%rbp
    1ce3:	48 83 ec 10          	sub    $0x10,%rsp
    1ce7:	b8 00 00 00 00       	mov    $0x0,%eax
    1cec:	e8 90 ff ff ff       	callq  1c81 <skip>
    1cf1:	48 89 45 f8          	mov    %rax,-0x8(%rbp)
    1cf5:	48 83 7d f8 00       	cmpq   $0x0,-0x8(%rbp)
    1cfa:	75 7d                	jne    1d79 <read_line+0x9a>
    1cfc:	48 8b 15 ed 3a 00 00 	mov    0x3aed(%rip),%rdx        # 57f0 <infile>
    1d03:	48 8b 05 c6 3a 00 00 	mov    0x3ac6(%rip),%rax        # 57d0 <stdin@@GLIBC_2.2.5>
    1d0a:	48 39 c2             	cmp    %rax,%rdx
    1d0d:	75 16                	jne    1d25 <read_line+0x46>
    1d0f:	48 8d 3d 8d 15 00 00 	lea    0x158d(%rip),%rdi        # 32a3 <_IO_stdin_used+0x2a3>
    1d16:	e8 45 f3 ff ff       	callq  1060 <puts@plt>
    1d1b:	bf 08 00 00 00       	mov    $0x8,%edi
    1d20:	e8 7b f4 ff ff       	callq  11a0 <exit@plt>
    1d25:	48 8d 3d 95 15 00 00 	lea    0x1595(%rip),%rdi        # 32c1 <_IO_stdin_used+0x2c1>
    1d2c:	e8 ff f2 ff ff       	callq  1030 <getenv@plt>
    1d31:	48 85 c0             	test   %rax,%rax
    1d34:	74 0a                	je     1d40 <read_line+0x61>
    1d36:	bf 00 00 00 00       	mov    $0x0,%edi
    1d3b:	e8 60 f4 ff ff       	callq  11a0 <exit@plt>
    1d40:	48 8b 05 89 3a 00 00 	mov    0x3a89(%rip),%rax        # 57d0 <stdin@@GLIBC_2.2.5>
    1d47:	48 89 05 a2 3a 00 00 	mov    %rax,0x3aa2(%rip)        # 57f0 <infile>
    1d4e:	b8 00 00 00 00       	mov    $0x0,%eax
    1d53:	e8 29 ff ff ff       	callq  1c81 <skip>
    1d58:	48 89 45 f8          	mov    %rax,-0x8(%rbp)
    1d5c:	48 83 7d f8 00       	cmpq   $0x0,-0x8(%rbp)
    1d61:	75 16                	jne    1d79 <read_line+0x9a>
    1d63:	48 8d 3d 39 15 00 00 	lea    0x1539(%rip),%rdi        # 32a3 <_IO_stdin_used+0x2a3>
    1d6a:	e8 f1 f2 ff ff       	callq  1060 <puts@plt>
    1d6f:	bf 00 00 00 00       	mov    $0x0,%edi
    1d74:	e8 27 f4 ff ff       	callq  11a0 <exit@plt>
    1d79:	8b 05 c1 40 00 00    	mov    0x40c1(%rip),%eax        # 5e40 <num_input_strings>
    1d7f:	48 63 d0             	movslq %eax,%rdx
    1d82:	48 89 d0             	mov    %rdx,%rax
    1d85:	48 c1 e0 02          	shl    $0x2,%rax
    1d89:	48 01 d0             	add    %rdx,%rax
    1d8c:	48 c1 e0 04          	shl    $0x4,%rax
    1d90:	48 8d 15 69 3a 00 00 	lea    0x3a69(%rip),%rdx        # 5800 <input_strings>
    1d97:	48 01 d0             	add    %rdx,%rax
    1d9a:	48 89 c7             	mov    %rax,%rdi
    1d9d:	e8 de f2 ff ff       	callq  1080 <strlen@plt>
    1da2:	89 45 f4             	mov    %eax,-0xc(%rbp)
    1da5:	83 7d f4 4e          	cmpl   $0x4e,-0xc(%rbp)
    1da9:	7e 56                	jle    1e01 <read_line+0x122>
    1dab:	48 8d 3d 1a 15 00 00 	lea    0x151a(%rip),%rdi        # 32cc <_IO_stdin_used+0x2cc>
    1db2:	e8 a9 f2 ff ff       	callq  1060 <puts@plt>
    1db7:	8b 05 83 40 00 00    	mov    0x4083(%rip),%eax        # 5e40 <num_input_strings>
    1dbd:	8d 50 01             	lea    0x1(%rax),%edx
    1dc0:	89 15 7a 40 00 00    	mov    %edx,0x407a(%rip)        # 5e40 <num_input_strings>
    1dc6:	48 63 d0             	movslq %eax,%rdx
    1dc9:	48 89 d0             	mov    %rdx,%rax
    1dcc:	48 c1 e0 02          	shl    $0x2,%rax
    1dd0:	48 01 d0             	add    %rdx,%rax
    1dd3:	48 c1 e0 04          	shl    $0x4,%rax
    1dd7:	48 8d 15 22 3a 00 00 	lea    0x3a22(%rip),%rdx        # 5800 <input_strings>
    1dde:	48 01 d0             	add    %rdx,%rax
    1de1:	48 be 2a 2a 2a 74 72 	movabs $0x636e7572742a2a2a,%rsi
    1de8:	75 6e 63 
    1deb:	48 bf 61 74 65 64 2a 	movabs $0x2a2a2a64657461,%rdi
    1df2:	2a 2a 00 
    1df5:	48 89 30             	mov    %rsi,(%rax)
    1df8:	48 89 78 08          	mov    %rdi,0x8(%rax)
    1dfc:	e8 5d 00 00 00       	callq  1e5e <explode_bomb>
    1e01:	8b 05 39 40 00 00    	mov    0x4039(%rip),%eax        # 5e40 <num_input_strings>
    1e07:	8b 55 f4             	mov    -0xc(%rbp),%edx
    1e0a:	83 ea 01             	sub    $0x1,%edx
    1e0d:	48 63 ca             	movslq %edx,%rcx
    1e10:	48 63 d0             	movslq %eax,%rdx
    1e13:	48 89 d0             	mov    %rdx,%rax
    1e16:	48 c1 e0 02          	shl    $0x2,%rax
    1e1a:	48 01 d0             	add    %rdx,%rax
    1e1d:	48 c1 e0 04          	shl    $0x4,%rax
    1e21:	48 8d 14 08          	lea    (%rax,%rcx,1),%rdx
    1e25:	48 8d 05 d4 39 00 00 	lea    0x39d4(%rip),%rax        # 5800 <input_strings>
    1e2c:	48 01 d0             	add    %rdx,%rax
    1e2f:	c6 00 00             	movb   $0x0,(%rax)
    1e32:	8b 05 08 40 00 00    	mov    0x4008(%rip),%eax        # 5e40 <num_input_strings>
    1e38:	8d 50 01             	lea    0x1(%rax),%edx
    1e3b:	89 15 ff 3f 00 00    	mov    %edx,0x3fff(%rip)        # 5e40 <num_input_strings>
    1e41:	48 63 d0             	movslq %eax,%rdx
    1e44:	48 89 d0             	mov    %rdx,%rax
    1e47:	48 c1 e0 02          	shl    $0x2,%rax
    1e4b:	48 01 d0             	add    %rdx,%rax
    1e4e:	48 c1 e0 04          	shl    $0x4,%rax
    1e52:	48 8d 15 a7 39 00 00 	lea    0x39a7(%rip),%rdx        # 5800 <input_strings>
    1e59:	48 01 d0             	add    %rdx,%rax
    1e5c:	c9                   	leaveq 
    1e5d:	c3                   	retq   

0000000000001e5e <explode_bomb>:
    1e5e:	55                   	push   %rbp
    1e5f:	48 89 e5             	mov    %rsp,%rbp
    1e62:	48 8d 3d 7e 14 00 00 	lea    0x147e(%rip),%rdi        # 32e7 <_IO_stdin_used+0x2e7>
    1e69:	e8 f2 f1 ff ff       	callq  1060 <puts@plt>
    1e6e:	48 8d 3d 7b 14 00 00 	lea    0x147b(%rip),%rdi        # 32f0 <_IO_stdin_used+0x2f0>
    1e75:	e8 e6 f1 ff ff       	callq  1060 <puts@plt>
    1e7a:	bf 08 00 00 00       	mov    $0x8,%edi
    1e7f:	e8 1c f3 ff ff       	callq  11a0 <exit@plt>

0000000000001e84 <phase_defused>:
    1e84:	55                   	push   %rbp
    1e85:	48 89 e5             	mov    %rsp,%rbp
    1e88:	48 83 ec 70          	sub    $0x70,%rsp
    1e8c:	8b 05 ae 3f 00 00    	mov    0x3fae(%rip),%eax        # 5e40 <num_input_strings>
    1e92:	83 f8 06             	cmp    $0x6,%eax
    1e95:	75 7b                	jne    1f12 <phase_defused+0x8e>
    1e97:	48 8d 4d a0          	lea    -0x60(%rbp),%rcx
    1e9b:	48 8d 55 98          	lea    -0x68(%rbp),%rdx
    1e9f:	48 8d 45 9c          	lea    -0x64(%rbp),%rax
    1ea3:	49 89 c8             	mov    %rcx,%r8
    1ea6:	48 89 d1             	mov    %rdx,%rcx
    1ea9:	48 89 c2             	mov    %rax,%rdx
    1eac:	48 8d 35 54 14 00 00 	lea    0x1454(%rip),%rsi        # 3307 <_IO_stdin_used+0x307>
    1eb3:	48 8d 3d 36 3a 00 00 	lea    0x3a36(%rip),%rdi        # 58f0 <input_strings+0xf0>
    1eba:	b8 00 00 00 00       	mov    $0x0,%eax
    1ebf:	e8 8c f2 ff ff       	callq  1150 <__isoc99_sscanf@plt>
    1ec4:	89 45 fc             	mov    %eax,-0x4(%rbp)
    1ec7:	83 7d fc 03          	cmpl   $0x3,-0x4(%rbp)
    1ecb:	75 39                	jne    1f06 <phase_defused+0x82>
    1ecd:	48 8d 45 a0          	lea    -0x60(%rbp),%rax
    1ed1:	48 8d 35 38 14 00 00 	lea    0x1438(%rip),%rsi        # 3310 <_IO_stdin_used+0x310>
    1ed8:	48 89 c7             	mov    %rax,%rdi
    1edb:	e8 aa fc ff ff       	callq  1b8a <strings_not_equal>
    1ee0:	85 c0                	test   %eax,%eax
    1ee2:	75 22                	jne    1f06 <phase_defused+0x82>
    1ee4:	48 8d 3d 2d 14 00 00 	lea    0x142d(%rip),%rdi        # 3318 <_IO_stdin_used+0x318>
    1eeb:	e8 70 f1 ff ff       	callq  1060 <puts@plt>
    1ef0:	48 8d 3d 49 14 00 00 	lea    0x1449(%rip),%rdi        # 3340 <_IO_stdin_used+0x340>
    1ef7:	e8 64 f1 ff ff       	callq  1060 <puts@plt>
    1efc:	b8 00 00 00 00       	mov    $0x0,%eax
    1f01:	e8 f1 fa ff ff       	callq  19f7 <secret_phase>
    1f06:	48 8d 3d 6b 14 00 00 	lea    0x146b(%rip),%rdi        # 3378 <_IO_stdin_used+0x378>
    1f0d:	e8 4e f1 ff ff       	callq  1060 <puts@plt>
    1f12:	90                   	nop
    1f13:	c9                   	leaveq 
    1f14:	c3                   	retq   

0000000000001f15 <sigalrm_handler>:
    1f15:	55                   	push   %rbp
    1f16:	48 89 e5             	mov    %rsp,%rbp
    1f19:	48 83 ec 10          	sub    $0x10,%rsp
    1f1d:	89 7d fc             	mov    %edi,-0x4(%rbp)
    1f20:	48 8b 05 b9 38 00 00 	mov    0x38b9(%rip),%rax        # 57e0 <stderr@@GLIBC_2.2.5>
    1f27:	ba 00 00 00 00       	mov    $0x0,%edx
    1f2c:	48 8d 35 75 14 00 00 	lea    0x1475(%rip),%rsi        # 33a8 <_IO_stdin_used+0x3a8>
    1f33:	48 89 c7             	mov    %rax,%rdi
    1f36:	b8 00 00 00 00       	mov    $0x0,%eax
    1f3b:	e8 e0 f1 ff ff       	callq  1120 <fprintf@plt>
    1f40:	bf 01 00 00 00       	mov    $0x1,%edi
    1f45:	e8 56 f2 ff ff       	callq  11a0 <exit@plt>

0000000000001f4a <rio_readinitb>:
    1f4a:	55                   	push   %rbp
    1f4b:	48 89 e5             	mov    %rsp,%rbp
    1f4e:	48 89 7d f8          	mov    %rdi,-0x8(%rbp)
    1f52:	89 75 f4             	mov    %esi,-0xc(%rbp)
    1f55:	48 8b 45 f8          	mov    -0x8(%rbp),%rax
    1f59:	8b 55 f4             	mov    -0xc(%rbp),%edx
    1f5c:	89 10                	mov    %edx,(%rax)
    1f5e:	48 8b 45 f8          	mov    -0x8(%rbp),%rax
    1f62:	c7 40 04 00 00 00 00 	movl   $0x0,0x4(%rax)
    1f69:	48 8b 45 f8          	mov    -0x8(%rbp),%rax
    1f6d:	48 8d 50 10          	lea    0x10(%rax),%rdx
    1f71:	48 8b 45 f8          	mov    -0x8(%rbp),%rax
    1f75:	48 89 50 08          	mov    %rdx,0x8(%rax)
    1f79:	90                   	nop
    1f7a:	5d                   	pop    %rbp
    1f7b:	c3                   	retq   

0000000000001f7c <rio_read>:
    1f7c:	55                   	push   %rbp
    1f7d:	48 89 e5             	mov    %rsp,%rbp
    1f80:	48 83 ec 30          	sub    $0x30,%rsp
    1f84:	48 89 7d e8          	mov    %rdi,-0x18(%rbp)
    1f88:	48 89 75 e0          	mov    %rsi,-0x20(%rbp)
    1f8c:	48 89 55 d8          	mov    %rdx,-0x28(%rbp)
    1f90:	eb 6e                	jmp    2000 <rio_read+0x84>
    1f92:	48 8b 45 e8          	mov    -0x18(%rbp),%rax
    1f96:	48 8d 48 10          	lea    0x10(%rax),%rcx
    1f9a:	48 8b 45 e8          	mov    -0x18(%rbp),%rax
    1f9e:	8b 00                	mov    (%rax),%eax
    1fa0:	ba 00 20 00 00       	mov    $0x2000,%edx
    1fa5:	48 89 ce             	mov    %rcx,%rsi
    1fa8:	89 c7                	mov    %eax,%edi
    1faa:	e8 21 f1 ff ff       	callq  10d0 <read@plt>
    1faf:	89 c2                	mov    %eax,%edx
    1fb1:	48 8b 45 e8          	mov    -0x18(%rbp),%rax
    1fb5:	89 50 04             	mov    %edx,0x4(%rax)
    1fb8:	48 8b 45 e8          	mov    -0x18(%rbp),%rax
    1fbc:	8b 40 04             	mov    0x4(%rax),%eax
    1fbf:	85 c0                	test   %eax,%eax
    1fc1:	79 18                	jns    1fdb <rio_read+0x5f>
    1fc3:	e8 78 f0 ff ff       	callq  1040 <__errno_location@plt>
    1fc8:	8b 00                	mov    (%rax),%eax
    1fca:	83 f8 04             	cmp    $0x4,%eax
    1fcd:	74 31                	je     2000 <rio_read+0x84>
    1fcf:	48 c7 c0 ff ff ff ff 	mov    $0xffffffffffffffff,%rax
    1fd6:	e9 9d 00 00 00       	jmpq   2078 <rio_read+0xfc>
    1fdb:	48 8b 45 e8          	mov    -0x18(%rbp),%rax
    1fdf:	8b 40 04             	mov    0x4(%rax),%eax
    1fe2:	85 c0                	test   %eax,%eax
    1fe4:	75 0a                	jne    1ff0 <rio_read+0x74>
    1fe6:	b8 00 00 00 00       	mov    $0x0,%eax
    1feb:	e9 88 00 00 00       	jmpq   2078 <rio_read+0xfc>
    1ff0:	48 8b 45 e8          	mov    -0x18(%rbp),%rax
    1ff4:	48 8d 50 10          	lea    0x10(%rax),%rdx
    1ff8:	48 8b 45 e8          	mov    -0x18(%rbp),%rax
    1ffc:	48 89 50 08          	mov    %rdx,0x8(%rax)
    2000:	48 8b 45 e8          	mov    -0x18(%rbp),%rax
    2004:	8b 40 04             	mov    0x4(%rax),%eax
    2007:	85 c0                	test   %eax,%eax
    2009:	7e 87                	jle    1f92 <rio_read+0x16>
    200b:	48 8b 45 d8          	mov    -0x28(%rbp),%rax
    200f:	89 45 fc             	mov    %eax,-0x4(%rbp)
    2012:	48 8b 45 e8          	mov    -0x18(%rbp),%rax
    2016:	8b 40 04             	mov    0x4(%rax),%eax
    2019:	48 98                	cltq   
    201b:	48 39 45 d8          	cmp    %rax,-0x28(%rbp)
    201f:	76 0a                	jbe    202b <rio_read+0xaf>
    2021:	48 8b 45 e8          	mov    -0x18(%rbp),%rax
    2025:	8b 40 04             	mov    0x4(%rax),%eax
    2028:	89 45 fc             	mov    %eax,-0x4(%rbp)
    202b:	8b 45 fc             	mov    -0x4(%rbp),%eax
    202e:	48 63 d0             	movslq %eax,%rdx
    2031:	48 8b 45 e8          	mov    -0x18(%rbp),%rax
    2035:	48 8b 48 08          	mov    0x8(%rax),%rcx
    2039:	48 8b 45 e0          	mov    -0x20(%rbp),%rax
    203d:	48 89 ce             	mov    %rcx,%rsi
    2040:	48 89 c7             	mov    %rax,%rdi
    2043:	e8 e8 f0 ff ff       	callq  1130 <memcpy@plt>
    2048:	48 8b 45 e8          	mov    -0x18(%rbp),%rax
    204c:	48 8b 50 08          	mov    0x8(%rax),%rdx
    2050:	8b 45 fc             	mov    -0x4(%rbp),%eax
    2053:	48 98                	cltq   
    2055:	48 01 c2             	add    %rax,%rdx
    2058:	48 8b 45 e8          	mov    -0x18(%rbp),%rax
    205c:	48 89 50 08          	mov    %rdx,0x8(%rax)
    2060:	48 8b 45 e8          	mov    -0x18(%rbp),%rax
    2064:	8b 40 04             	mov    0x4(%rax),%eax
    2067:	2b 45 fc             	sub    -0x4(%rbp),%eax
    206a:	89 c2                	mov    %eax,%edx
    206c:	48 8b 45 e8          	mov    -0x18(%rbp),%rax
    2070:	89 50 04             	mov    %edx,0x4(%rax)
    2073:	8b 45 fc             	mov    -0x4(%rbp),%eax
    2076:	48 98                	cltq   
    2078:	c9                   	leaveq 
    2079:	c3                   	retq   

000000000000207a <rio_readlineb>:
    207a:	55                   	push   %rbp
    207b:	48 89 e5             	mov    %rsp,%rbp
    207e:	48 83 ec 40          	sub    $0x40,%rsp
    2082:	48 89 7d d8          	mov    %rdi,-0x28(%rbp)
    2086:	48 89 75 d0          	mov    %rsi,-0x30(%rbp)
    208a:	48 89 55 c8          	mov    %rdx,-0x38(%rbp)
    208e:	48 8b 45 d0          	mov    -0x30(%rbp),%rax
    2092:	48 89 45 f0          	mov    %rax,-0x10(%rbp)
    2096:	c7 45 fc 01 00 00 00 	movl   $0x1,-0x4(%rbp)
    209d:	eb 5d                	jmp    20fc <rio_readlineb+0x82>
    209f:	48 8d 4d eb          	lea    -0x15(%rbp),%rcx
    20a3:	48 8b 45 d8          	mov    -0x28(%rbp),%rax
    20a7:	ba 01 00 00 00       	mov    $0x1,%edx
    20ac:	48 89 ce             	mov    %rcx,%rsi
    20af:	48 89 c7             	mov    %rax,%rdi
    20b2:	e8 c5 fe ff ff       	callq  1f7c <rio_read>
    20b7:	89 45 ec             	mov    %eax,-0x14(%rbp)
    20ba:	83 7d ec 01          	cmpl   $0x1,-0x14(%rbp)
    20be:	75 1c                	jne    20dc <rio_readlineb+0x62>
    20c0:	48 8b 45 f0          	mov    -0x10(%rbp),%rax
    20c4:	48 8d 50 01          	lea    0x1(%rax),%rdx
    20c8:	48 89 55 f0          	mov    %rdx,-0x10(%rbp)
    20cc:	0f b6 55 eb          	movzbl -0x15(%rbp),%edx
    20d0:	88 10                	mov    %dl,(%rax)
    20d2:	0f b6 45 eb          	movzbl -0x15(%rbp),%eax
    20d6:	3c 0a                	cmp    $0xa,%al
    20d8:	75 1e                	jne    20f8 <rio_readlineb+0x7e>
    20da:	eb 2e                	jmp    210a <rio_readlineb+0x90>
    20dc:	83 7d ec 00          	cmpl   $0x0,-0x14(%rbp)
    20e0:	75 0d                	jne    20ef <rio_readlineb+0x75>
    20e2:	83 7d fc 01          	cmpl   $0x1,-0x4(%rbp)
    20e6:	75 21                	jne    2109 <rio_readlineb+0x8f>
    20e8:	b8 00 00 00 00       	mov    $0x0,%eax
    20ed:	eb 27                	jmp    2116 <rio_readlineb+0x9c>
    20ef:	48 c7 c0 ff ff ff ff 	mov    $0xffffffffffffffff,%rax
    20f6:	eb 1e                	jmp    2116 <rio_readlineb+0x9c>
    20f8:	83 45 fc 01          	addl   $0x1,-0x4(%rbp)
    20fc:	8b 45 fc             	mov    -0x4(%rbp),%eax
    20ff:	48 98                	cltq   
    2101:	48 39 45 c8          	cmp    %rax,-0x38(%rbp)
    2105:	77 98                	ja     209f <rio_readlineb+0x25>
    2107:	eb 01                	jmp    210a <rio_readlineb+0x90>
    2109:	90                   	nop
    210a:	48 8b 45 f0          	mov    -0x10(%rbp),%rax
    210e:	c6 00 00             	movb   $0x0,(%rax)
    2111:	8b 45 fc             	mov    -0x4(%rbp),%eax
    2114:	48 98                	cltq   
    2116:	c9                   	leaveq 
    2117:	c3                   	retq   

0000000000002118 <rio_writen>:
    2118:	55                   	push   %rbp
    2119:	48 89 e5             	mov    %rsp,%rbp
    211c:	48 83 ec 40          	sub    $0x40,%rsp
    2120:	89 7d dc             	mov    %edi,-0x24(%rbp)
    2123:	48 89 75 d0          	mov    %rsi,-0x30(%rbp)
    2127:	48 89 55 c8          	mov    %rdx,-0x38(%rbp)
    212b:	48 8b 45 c8          	mov    -0x38(%rbp),%rax
    212f:	48 89 45 f8          	mov    %rax,-0x8(%rbp)
    2133:	48 8b 45 d0          	mov    -0x30(%rbp),%rax
    2137:	48 89 45 e8          	mov    %rax,-0x18(%rbp)
    213b:	eb 4f                	jmp    218c <rio_writen+0x74>
    213d:	48 8b 55 f8          	mov    -0x8(%rbp),%rdx
    2141:	48 8b 4d e8          	mov    -0x18(%rbp),%rcx
    2145:	8b 45 dc             	mov    -0x24(%rbp),%eax
    2148:	48 89 ce             	mov    %rcx,%rsi
    214b:	89 c7                	mov    %eax,%edi
    214d:	e8 1e ef ff ff       	callq  1070 <write@plt>
    2152:	48 89 45 f0          	mov    %rax,-0x10(%rbp)
    2156:	48 83 7d f0 00       	cmpq   $0x0,-0x10(%rbp)
    215b:	7f 1f                	jg     217c <rio_writen+0x64>
    215d:	e8 de ee ff ff       	callq  1040 <__errno_location@plt>
    2162:	8b 00                	mov    (%rax),%eax
    2164:	83 f8 04             	cmp    $0x4,%eax
    2167:	75 0a                	jne    2173 <rio_writen+0x5b>
    2169:	48 c7 45 f0 00 00 00 	movq   $0x0,-0x10(%rbp)
    2170:	00 
    2171:	eb 09                	jmp    217c <rio_writen+0x64>
    2173:	48 c7 c0 ff ff ff ff 	mov    $0xffffffffffffffff,%rax
    217a:	eb 1b                	jmp    2197 <rio_writen+0x7f>
    217c:	48 8b 45 f0          	mov    -0x10(%rbp),%rax
    2180:	48 29 45 f8          	sub    %rax,-0x8(%rbp)
    2184:	48 8b 45 f0          	mov    -0x10(%rbp),%rax
    2188:	48 01 45 e8          	add    %rax,-0x18(%rbp)
    218c:	48 83 7d f8 00       	cmpq   $0x0,-0x8(%rbp)
    2191:	75 aa                	jne    213d <rio_writen+0x25>
    2193:	48 8b 45 c8          	mov    -0x38(%rbp),%rax
    2197:	c9                   	leaveq 
    2198:	c3                   	retq   

0000000000002199 <urlencode>:
    2199:	55                   	push   %rbp
    219a:	48 89 e5             	mov    %rsp,%rbp
    219d:	48 83 ec 20          	sub    $0x20,%rsp
    21a1:	48 89 7d e8          	mov    %rdi,-0x18(%rbp)
    21a5:	48 89 75 e0          	mov    %rsi,-0x20(%rbp)
    21a9:	48 8b 45 e8          	mov    -0x18(%rbp),%rax
    21ad:	48 89 c7             	mov    %rax,%rdi
    21b0:	e8 cb ee ff ff       	callq  1080 <strlen@plt>
    21b5:	89 45 fc             	mov    %eax,-0x4(%rbp)
    21b8:	e9 34 01 00 00       	jmpq   22f1 <urlencode+0x158>
    21bd:	48 8b 45 e8          	mov    -0x18(%rbp),%rax
    21c1:	0f b6 00             	movzbl (%rax),%eax
    21c4:	3c 2a                	cmp    $0x2a,%al
    21c6:	74 63                	je     222b <urlencode+0x92>
    21c8:	48 8b 45 e8          	mov    -0x18(%rbp),%rax
    21cc:	0f b6 00             	movzbl (%rax),%eax
    21cf:	3c 2d                	cmp    $0x2d,%al
    21d1:	74 58                	je     222b <urlencode+0x92>
    21d3:	48 8b 45 e8          	mov    -0x18(%rbp),%rax
    21d7:	0f b6 00             	movzbl (%rax),%eax
    21da:	3c 2e                	cmp    $0x2e,%al
    21dc:	74 4d                	je     222b <urlencode+0x92>
    21de:	48 8b 45 e8          	mov    -0x18(%rbp),%rax
    21e2:	0f b6 00             	movzbl (%rax),%eax
    21e5:	3c 5f                	cmp    $0x5f,%al
    21e7:	74 42                	je     222b <urlencode+0x92>
    21e9:	48 8b 45 e8          	mov    -0x18(%rbp),%rax
    21ed:	0f b6 00             	movzbl (%rax),%eax
    21f0:	3c 2f                	cmp    $0x2f,%al
    21f2:	76 0b                	jbe    21ff <urlencode+0x66>
    21f4:	48 8b 45 e8          	mov    -0x18(%rbp),%rax
    21f8:	0f b6 00             	movzbl (%rax),%eax
    21fb:	3c 39                	cmp    $0x39,%al
    21fd:	76 2c                	jbe    222b <urlencode+0x92>
    21ff:	48 8b 45 e8          	mov    -0x18(%rbp),%rax
    2203:	0f b6 00             	movzbl (%rax),%eax
    2206:	3c 40                	cmp    $0x40,%al
    2208:	76 0b                	jbe    2215 <urlencode+0x7c>
    220a:	48 8b 45 e8          	mov    -0x18(%rbp),%rax
    220e:	0f b6 00             	movzbl (%rax),%eax
    2211:	3c 5a                	cmp    $0x5a,%al
    2213:	76 16                	jbe    222b <urlencode+0x92>
    2215:	48 8b 45 e8          	mov    -0x18(%rbp),%rax
    2219:	0f b6 00             	movzbl (%rax),%eax
    221c:	3c 60                	cmp    $0x60,%al
    221e:	76 25                	jbe    2245 <urlencode+0xac>
    2220:	48 8b 45 e8          	mov    -0x18(%rbp),%rax
    2224:	0f b6 00             	movzbl (%rax),%eax
    2227:	3c 7a                	cmp    $0x7a,%al
    2229:	77 1a                	ja     2245 <urlencode+0xac>
    222b:	48 8b 45 e0          	mov    -0x20(%rbp),%rax
    222f:	48 8d 50 01          	lea    0x1(%rax),%rdx
    2233:	48 89 55 e0          	mov    %rdx,-0x20(%rbp)
    2237:	48 8b 55 e8          	mov    -0x18(%rbp),%rdx
    223b:	0f b6 12             	movzbl (%rdx),%edx
    223e:	88 10                	mov    %dl,(%rax)
    2240:	e9 a7 00 00 00       	jmpq   22ec <urlencode+0x153>
    2245:	48 8b 45 e8          	mov    -0x18(%rbp),%rax
    2249:	0f b6 00             	movzbl (%rax),%eax
    224c:	3c 20                	cmp    $0x20,%al
    224e:	75 14                	jne    2264 <urlencode+0xcb>
    2250:	48 8b 45 e0          	mov    -0x20(%rbp),%rax
    2254:	48 8d 50 01          	lea    0x1(%rax),%rdx
    2258:	48 89 55 e0          	mov    %rdx,-0x20(%rbp)
    225c:	c6 00 2b             	movb   $0x2b,(%rax)
    225f:	e9 88 00 00 00       	jmpq   22ec <urlencode+0x153>
    2264:	48 8b 45 e8          	mov    -0x18(%rbp),%rax
    2268:	0f b6 00             	movzbl (%rax),%eax
    226b:	3c 1f                	cmp    $0x1f,%al
    226d:	76 0b                	jbe    227a <urlencode+0xe1>
    226f:	48 8b 45 e8          	mov    -0x18(%rbp),%rax
    2273:	0f b6 00             	movzbl (%rax),%eax
    2276:	84 c0                	test   %al,%al
    2278:	79 0b                	jns    2285 <urlencode+0xec>
    227a:	48 8b 45 e8          	mov    -0x18(%rbp),%rax
    227e:	0f b6 00             	movzbl (%rax),%eax
    2281:	3c 09                	cmp    $0x9,%al
    2283:	75 60                	jne    22e5 <urlencode+0x14c>
    2285:	48 8b 45 e8          	mov    -0x18(%rbp),%rax
    2289:	0f b6 00             	movzbl (%rax),%eax
    228c:	0f b6 d0             	movzbl %al,%edx
    228f:	48 8d 45 f4          	lea    -0xc(%rbp),%rax
    2293:	48 8d 35 32 11 00 00 	lea    0x1132(%rip),%rsi        # 33cc <_IO_stdin_used+0x3cc>
    229a:	48 89 c7             	mov    %rax,%rdi
    229d:	b8 00 00 00 00       	mov    $0x0,%eax
    22a2:	e8 e9 ee ff ff       	callq  1190 <sprintf@plt>
    22a7:	0f b6 4d f4          	movzbl -0xc(%rbp),%ecx
    22ab:	48 8b 45 e0          	mov    -0x20(%rbp),%rax
    22af:	48 8d 50 01          	lea    0x1(%rax),%rdx
    22b3:	48 89 55 e0          	mov    %rdx,-0x20(%rbp)
    22b7:	89 ca                	mov    %ecx,%edx
    22b9:	88 10                	mov    %dl,(%rax)
    22bb:	0f b6 4d f5          	movzbl -0xb(%rbp),%ecx
    22bf:	48 8b 45 e0          	mov    -0x20(%rbp),%rax
    22c3:	48 8d 50 01          	lea    0x1(%rax),%rdx
    22c7:	48 89 55 e0          	mov    %rdx,-0x20(%rbp)
    22cb:	89 ca                	mov    %ecx,%edx
    22cd:	88 10                	mov    %dl,(%rax)
    22cf:	0f b6 4d f6          	movzbl -0xa(%rbp),%ecx
    22d3:	48 8b 45 e0          	mov    -0x20(%rbp),%rax
    22d7:	48 8d 50 01          	lea    0x1(%rax),%rdx
    22db:	48 89 55 e0          	mov    %rdx,-0x20(%rbp)
    22df:	89 ca                	mov    %ecx,%edx
    22e1:	88 10                	mov    %dl,(%rax)
    22e3:	eb 07                	jmp    22ec <urlencode+0x153>
    22e5:	b8 ff ff ff ff       	mov    $0xffffffff,%eax
    22ea:	eb 1b                	jmp    2307 <urlencode+0x16e>
    22ec:	48 83 45 e8 01       	addq   $0x1,-0x18(%rbp)
    22f1:	8b 45 fc             	mov    -0x4(%rbp),%eax
    22f4:	8d 50 ff             	lea    -0x1(%rax),%edx
    22f7:	89 55 fc             	mov    %edx,-0x4(%rbp)
    22fa:	85 c0                	test   %eax,%eax
    22fc:	0f 85 bb fe ff ff    	jne    21bd <urlencode+0x24>
    2302:	b8 00 00 00 00       	mov    $0x0,%eax
    2307:	c9                   	leaveq 
    2308:	c3                   	retq   

0000000000002309 <submitr>:
    2309:	55                   	push   %rbp
    230a:	48 89 e5             	mov    %rsp,%rbp
    230d:	53                   	push   %rbx
    230e:	48 81 ec 88 a0 00 00 	sub    $0xa088,%rsp
    2315:	48 89 bd 98 5f ff ff 	mov    %rdi,-0xa068(%rbp)
    231c:	89 b5 94 5f ff ff    	mov    %esi,-0xa06c(%rbp)
    2322:	48 89 95 88 5f ff ff 	mov    %rdx,-0xa078(%rbp)
    2329:	48 89 8d 80 5f ff ff 	mov    %rcx,-0xa080(%rbp)
    2330:	4c 89 85 78 5f ff ff 	mov    %r8,-0xa088(%rbp)
    2337:	4c 89 8d 70 5f ff ff 	mov    %r9,-0xa090(%rbp)
    233e:	c7 85 ac 7f ff ff 00 	movl   $0x0,-0x8054(%rbp)
    2345:	00 00 00 
    2348:	ba 00 00 00 00       	mov    $0x0,%edx
    234d:	be 01 00 00 00       	mov    $0x1,%esi
    2352:	bf 02 00 00 00       	mov    $0x2,%edi
    2357:	e8 84 ee ff ff       	callq  11e0 <socket@plt>
    235c:	89 45 ec             	mov    %eax,-0x14(%rbp)
    235f:	83 7d ec 00          	cmpl   $0x0,-0x14(%rbp)
    2363:	79 52                	jns    23b7 <submitr+0xae>
    2365:	48 8b 45 10          	mov    0x10(%rbp),%rax
    2369:	48 bb 45 72 72 6f 72 	movabs $0x43203a726f727245,%rbx
    2370:	3a 20 43 
    2373:	48 be 6c 69 65 6e 74 	movabs $0x6e7520746e65696c,%rsi
    237a:	20 75 6e 
    237d:	48 89 18             	mov    %rbx,(%rax)
    2380:	48 89 70 08          	mov    %rsi,0x8(%rax)
    2384:	48 bb 61 62 6c 65 20 	movabs $0x206f7420656c6261,%rbx
    238b:	74 6f 20 
    238e:	48 be 63 72 65 61 74 	movabs $0x7320657461657263,%rsi
    2395:	65 20 73 
    2398:	48 89 58 10          	mov    %rbx,0x10(%rax)
    239c:	48 89 70 18          	mov    %rsi,0x18(%rax)
    23a0:	c7 40 20 6f 63 6b 65 	movl   $0x656b636f,0x20(%rax)
    23a7:	66 c7 40 24 74 00    	movw   $0x74,0x24(%rax)
    23ad:	b8 ff ff ff ff       	mov    $0xffffffff,%eax
    23b2:	e9 8b 06 00 00       	jmpq   2a42 <submitr+0x739>
    23b7:	48 8b 85 98 5f ff ff 	mov    -0xa068(%rbp),%rax
    23be:	48 89 c7             	mov    %rax,%rdi
    23c1:	e8 4a ed ff ff       	callq  1110 <gethostbyname@plt>
    23c6:	48 89 45 e0          	mov    %rax,-0x20(%rbp)
    23ca:	48 83 7d e0 00       	cmpq   $0x0,-0x20(%rbp)
    23cf:	75 6e                	jne    243f <submitr+0x136>
    23d1:	48 8b 45 10          	mov    0x10(%rbp),%rax
    23d5:	48 bb 45 72 72 6f 72 	movabs $0x44203a726f727245,%rbx
    23dc:	3a 20 44 
    23df:	48 be 4e 53 20 69 73 	movabs $0x6e7520736920534e,%rsi
    23e6:	20 75 6e 
    23e9:	48 89 18             	mov    %rbx,(%rax)
    23ec:	48 89 70 08          	mov    %rsi,0x8(%rax)
    23f0:	48 bb 61 62 6c 65 20 	movabs $0x206f7420656c6261,%rbx
    23f7:	74 6f 20 
    23fa:	48 be 72 65 73 6f 6c 	movabs $0x2065766c6f736572,%rsi
    2401:	76 65 20 
    2404:	48 89 58 10          	mov    %rbx,0x10(%rax)
    2408:	48 89 70 18          	mov    %rsi,0x18(%rax)
    240c:	48 bf 73 65 72 76 65 	movabs $0x6120726576726573,%rdi
    2413:	72 20 61 
    2416:	48 89 78 20          	mov    %rdi,0x20(%rax)
    241a:	c7 40 28 64 64 72 65 	movl   $0x65726464,0x28(%rax)
    2421:	66 c7 40 2c 73 73    	movw   $0x7373,0x2c(%rax)
    2427:	c6 40 2e 00          	movb   $0x0,0x2e(%rax)
    242b:	8b 45 ec             	mov    -0x14(%rbp),%eax
    242e:	89 c7                	mov    %eax,%edi
    2430:	e8 8b ec ff ff       	callq  10c0 <close@plt>
    2435:	b8 ff ff ff ff       	mov    $0xffffffff,%eax
    243a:	e9 03 06 00 00       	jmpq   2a42 <submitr+0x739>
    243f:	48 8d 45 c0          	lea    -0x40(%rbp),%rax
    2443:	48 c7 00 00 00 00 00 	movq   $0x0,(%rax)
    244a:	48 c7 40 08 00 00 00 	movq   $0x0,0x8(%rax)
    2451:	00 
    2452:	66 c7 45 c0 02 00    	movw   $0x2,-0x40(%rbp)
    2458:	48 8b 45 e0          	mov    -0x20(%rbp),%rax
    245c:	8b 40 14             	mov    0x14(%rax),%eax
    245f:	48 63 d0             	movslq %eax,%rdx
    2462:	48 8b 45 e0          	mov    -0x20(%rbp),%rax
    2466:	48 8b 40 18          	mov    0x18(%rax),%rax
    246a:	48 8b 00             	mov    (%rax),%rax
    246d:	48 8d 4d c0          	lea    -0x40(%rbp),%rcx
    2471:	48 83 c1 04          	add    $0x4,%rcx
    2475:	48 89 c6             	mov    %rax,%rsi
    2478:	48 89 cf             	mov    %rcx,%rdi
    247b:	e8 e0 ec ff ff       	callq  1160 <memmove@plt>
    2480:	8b 85 94 5f ff ff    	mov    -0xa06c(%rbp),%eax
    2486:	0f b7 c0             	movzwl %ax,%eax
    2489:	89 c7                	mov    %eax,%edi
    248b:	e8 00 ec ff ff       	callq  1090 <htons@plt>
    2490:	66 89 45 c2          	mov    %ax,-0x3e(%rbp)
    2494:	48 8d 4d c0          	lea    -0x40(%rbp),%rcx
    2498:	8b 45 ec             	mov    -0x14(%rbp),%eax
    249b:	ba 10 00 00 00       	mov    $0x10,%edx
    24a0:	48 89 ce             	mov    %rcx,%rsi
    24a3:	89 c7                	mov    %eax,%edi
    24a5:	e8 06 ed ff ff       	callq  11b0 <connect@plt>
    24aa:	85 c0                	test   %eax,%eax
    24ac:	79 60                	jns    250e <submitr+0x205>
    24ae:	48 8b 45 10          	mov    0x10(%rbp),%rax
    24b2:	48 bb 45 72 72 6f 72 	movabs $0x55203a726f727245,%rbx
    24b9:	3a 20 55 
    24bc:	48 be 6e 61 62 6c 65 	movabs $0x6f7420656c62616e,%rsi
    24c3:	20 74 6f 
    24c6:	48 89 18             	mov    %rbx,(%rax)
    24c9:	48 89 70 08          	mov    %rsi,0x8(%rax)
    24cd:	48 bb 20 63 6f 6e 6e 	movabs $0x7463656e6e6f6320,%rbx
    24d4:	65 63 74 
    24d7:	48 be 20 74 6f 20 74 	movabs $0x20656874206f7420,%rsi
    24de:	68 65 20 
    24e1:	48 89 58 10          	mov    %rbx,0x10(%rax)
    24e5:	48 89 70 18          	mov    %rsi,0x18(%rax)
    24e9:	c7 40 20 73 65 72 76 	movl   $0x76726573,0x20(%rax)
    24f0:	66 c7 40 24 65 72    	movw   $0x7265,0x24(%rax)
    24f6:	c6 40 26 00          	movb   $0x0,0x26(%rax)
    24fa:	8b 45 ec             	mov    -0x14(%rbp),%eax
    24fd:	89 c7                	mov    %eax,%edi
    24ff:	e8 bc eb ff ff       	callq  10c0 <close@plt>
    2504:	b8 ff ff ff ff       	mov    $0xffffffff,%eax
    2509:	e9 34 05 00 00       	jmpq   2a42 <submitr+0x739>
    250e:	48 8b 85 70 5f ff ff 	mov    -0xa090(%rbp),%rax
    2515:	48 89 c7             	mov    %rax,%rdi
    2518:	e8 63 eb ff ff       	callq  1080 <strlen@plt>
    251d:	48 89 45 d8          	mov    %rax,-0x28(%rbp)
    2521:	48 8b 85 88 5f ff ff 	mov    -0xa078(%rbp),%rax
    2528:	48 89 c7             	mov    %rax,%rdi
    252b:	e8 50 eb ff ff       	callq  1080 <strlen@plt>
    2530:	48 89 c3             	mov    %rax,%rbx
    2533:	48 8b 85 80 5f ff ff 	mov    -0xa080(%rbp),%rax
    253a:	48 89 c7             	mov    %rax,%rdi
    253d:	e8 3e eb ff ff       	callq  1080 <strlen@plt>
    2542:	48 01 c3             	add    %rax,%rbx
    2545:	48 8b 85 78 5f ff ff 	mov    -0xa088(%rbp),%rax
    254c:	48 89 c7             	mov    %rax,%rdi
    254f:	e8 2c eb ff ff       	callq  1080 <strlen@plt>
    2554:	48 8d 0c 03          	lea    (%rbx,%rax,1),%rcx
    2558:	48 8b 55 d8          	mov    -0x28(%rbp),%rdx
    255c:	48 89 d0             	mov    %rdx,%rax
    255f:	48 01 c0             	add    %rax,%rax
    2562:	48 01 d0             	add    %rdx,%rax
    2565:	48 01 c8             	add    %rcx,%rax
    2568:	48 83 e8 80          	sub    $0xffffffffffffff80,%rax
    256c:	48 89 45 d0          	mov    %rax,-0x30(%rbp)
    2570:	48 81 7d d0 00 20 00 	cmpq   $0x2000,-0x30(%rbp)
    2577:	00 
    2578:	76 79                	jbe    25f3 <submitr+0x2ea>
    257a:	48 8b 45 10          	mov    0x10(%rbp),%rax
    257e:	48 bb 45 72 72 6f 72 	movabs $0x52203a726f727245,%rbx
    2585:	3a 20 52 
    2588:	48 be 65 73 75 6c 74 	movabs $0x747320746c757365,%rsi
    258f:	20 73 74 
    2592:	48 89 18             	mov    %rbx,(%rax)
    2595:	48 89 70 08          	mov    %rsi,0x8(%rax)
    2599:	48 bb 72 69 6e 67 20 	movabs $0x6f6f7420676e6972,%rbx
    25a0:	74 6f 6f 
    25a3:	48 be 20 6c 61 72 67 	movabs $0x202e656772616c20,%rsi
    25aa:	65 2e 20 
    25ad:	48 89 58 10          	mov    %rbx,0x10(%rax)
    25b1:	48 89 70 18          	mov    %rsi,0x18(%rax)
    25b5:	48 bb 49 6e 63 72 65 	movabs $0x6573616572636e49,%rbx
    25bc:	61 73 65 
    25bf:	48 be 20 53 55 42 4d 	movabs $0x5254494d42555320,%rsi
    25c6:	49 54 52 
    25c9:	48 89 58 20          	mov    %rbx,0x20(%rax)
    25cd:	48 89 70 28          	mov    %rsi,0x28(%rax)
    25d1:	48 bf 5f 4d 41 58 42 	movabs $0x46554258414d5f,%rdi
    25d8:	55 46 00 
    25db:	48 89 78 30          	mov    %rdi,0x30(%rax)
    25df:	8b 45 ec             	mov    -0x14(%rbp),%eax
    25e2:	89 c7                	mov    %eax,%edi
    25e4:	e8 d7 ea ff ff       	callq  10c0 <close@plt>
    25e9:	b8 ff ff ff ff       	mov    $0xffffffff,%eax
    25ee:	e9 4f 04 00 00       	jmpq   2a42 <submitr+0x739>
    25f3:	48 8d 85 b0 9f ff ff 	lea    -0x6050(%rbp),%rax
    25fa:	48 89 c6             	mov    %rax,%rsi
    25fd:	b8 00 00 00 00       	mov    $0x0,%eax
    2602:	ba 00 04 00 00       	mov    $0x400,%edx
    2607:	48 89 f7             	mov    %rsi,%rdi
    260a:	48 89 d1             	mov    %rdx,%rcx
    260d:	f3 48 ab             	rep stos %rax,%es:(%rdi)
    2610:	48 8d 95 b0 9f ff ff 	lea    -0x6050(%rbp),%rdx
    2617:	48 8b 85 70 5f ff ff 	mov    -0xa090(%rbp),%rax
    261e:	48 89 d6             	mov    %rdx,%rsi
    2621:	48 89 c7             	mov    %rax,%rdi
    2624:	e8 70 fb ff ff       	callq  2199 <urlencode>
    2629:	85 c0                	test   %eax,%eax
    262b:	0f 89 91 00 00 00    	jns    26c2 <submitr+0x3b9>
    2631:	48 8b 45 10          	mov    0x10(%rbp),%rax
    2635:	48 bb 45 72 72 6f 72 	movabs $0x52203a726f727245,%rbx
    263c:	3a 20 52 
    263f:	48 be 65 73 75 6c 74 	movabs $0x747320746c757365,%rsi
    2646:	20 73 74 
    2649:	48 89 18             	mov    %rbx,(%rax)
    264c:	48 89 70 08          	mov    %rsi,0x8(%rax)
    2650:	48 bb 72 69 6e 67 20 	movabs $0x6e6f6320676e6972,%rbx
    2657:	63 6f 6e 
    265a:	48 be 74 61 69 6e 73 	movabs $0x6e6120736e696174,%rsi
    2661:	20 61 6e 
    2664:	48 89 58 10          	mov    %rbx,0x10(%rax)
    2668:	48 89 70 18          	mov    %rsi,0x18(%rax)
    266c:	48 b9 20 69 6c 6c 65 	movabs $0x6c6167656c6c6920,%rcx
    2673:	67 61 6c 
    2676:	48 bb 20 6f 72 20 75 	movabs $0x72706e7520726f20,%rbx
    267d:	6e 70 72 
    2680:	48 89 48 20          	mov    %rcx,0x20(%rax)
    2684:	48 89 58 28          	mov    %rbx,0x28(%rax)
    2688:	48 b9 69 6e 74 61 62 	movabs $0x20656c6261746e69,%rcx
    268f:	6c 65 20 
    2692:	48 bb 63 68 61 72 61 	movabs $0x6574636172616863,%rbx
    2699:	63 74 65 
    269c:	48 89 48 30          	mov    %rcx,0x30(%rax)
    26a0:	48 89 58 38          	mov    %rbx,0x38(%rax)
    26a4:	66 c7 40 40 72 2e    	movw   $0x2e72,0x40(%rax)
    26aa:	c6 40 42 00          	movb   $0x0,0x42(%rax)
    26ae:	8b 45 ec             	mov    -0x14(%rbp),%eax
    26b1:	89 c7                	mov    %eax,%edi
    26b3:	e8 08 ea ff ff       	callq  10c0 <close@plt>
    26b8:	b8 ff ff ff ff       	mov    $0xffffffff,%eax
    26bd:	e9 80 03 00 00       	jmpq   2a42 <submitr+0x739>
    26c2:	48 8d bd b0 9f ff ff 	lea    -0x6050(%rbp),%rdi
    26c9:	48 8b b5 78 5f ff ff 	mov    -0xa088(%rbp),%rsi
    26d0:	48 8b 8d 80 5f ff ff 	mov    -0xa080(%rbp),%rcx
    26d7:	48 8b 95 88 5f ff ff 	mov    -0xa078(%rbp),%rdx
    26de:	48 8d 85 b0 bf ff ff 	lea    -0x4050(%rbp),%rax
    26e5:	49 89 f9             	mov    %rdi,%r9
    26e8:	49 89 f0             	mov    %rsi,%r8
    26eb:	48 8d 35 e6 0c 00 00 	lea    0xce6(%rip),%rsi        # 33d8 <_IO_stdin_used+0x3d8>
    26f2:	48 89 c7             	mov    %rax,%rdi
    26f5:	b8 00 00 00 00       	mov    $0x0,%eax
    26fa:	e8 91 ea ff ff       	callq  1190 <sprintf@plt>
    26ff:	48 8d 85 b0 bf ff ff 	lea    -0x4050(%rbp),%rax
    2706:	48 89 c7             	mov    %rax,%rdi
    2709:	e8 72 e9 ff ff       	callq  1080 <strlen@plt>
    270e:	48 89 c2             	mov    %rax,%rdx
    2711:	48 8d 8d b0 bf ff ff 	lea    -0x4050(%rbp),%rcx
    2718:	8b 45 ec             	mov    -0x14(%rbp),%eax
    271b:	48 89 ce             	mov    %rcx,%rsi
    271e:	89 c7                	mov    %eax,%edi
    2720:	e8 f3 f9 ff ff       	callq  2118 <rio_writen>
    2725:	48 85 c0             	test   %rax,%rax
    2728:	79 64                	jns    278e <submitr+0x485>
    272a:	48 8b 45 10          	mov    0x10(%rbp),%rax
    272e:	48 ba 45 72 72 6f 72 	movabs $0x43203a726f727245,%rdx
    2735:	3a 20 43 
    2738:	48 b9 6c 69 65 6e 74 	movabs $0x6e7520746e65696c,%rcx
    273f:	20 75 6e 
    2742:	48 89 10             	mov    %rdx,(%rax)
    2745:	48 89 48 08          	mov    %rcx,0x8(%rax)
    2749:	48 bb 61 62 6c 65 20 	movabs $0x206f7420656c6261,%rbx
    2750:	74 6f 20 
    2753:	48 be 77 72 69 74 65 	movabs $0x6f74206574697277,%rsi
    275a:	20 74 6f 
    275d:	48 89 58 10          	mov    %rbx,0x10(%rax)
    2761:	48 89 70 18          	mov    %rsi,0x18(%rax)
    2765:	48 bb 20 74 68 65 20 	movabs $0x7265732065687420,%rbx
    276c:	73 65 72 
    276f:	48 89 58 20          	mov    %rbx,0x20(%rax)
    2773:	c7 40 28 76 65 72 00 	movl   $0x726576,0x28(%rax)
    277a:	8b 45 ec             	mov    -0x14(%rbp),%eax
    277d:	89 c7                	mov    %eax,%edi
    277f:	e8 3c e9 ff ff       	callq  10c0 <close@plt>
    2784:	b8 ff ff ff ff       	mov    $0xffffffff,%eax
    2789:	e9 b4 02 00 00       	jmpq   2a42 <submitr+0x739>
    278e:	8b 55 ec             	mov    -0x14(%rbp),%edx
    2791:	48 8d 85 b0 df ff ff 	lea    -0x2050(%rbp),%rax
    2798:	89 d6                	mov    %edx,%esi
    279a:	48 89 c7             	mov    %rax,%rdi
    279d:	e8 a8 f7 ff ff       	callq  1f4a <rio_readinitb>
    27a2:	48 8d 8d b0 bf ff ff 	lea    -0x4050(%rbp),%rcx
    27a9:	48 8d 85 b0 df ff ff 	lea    -0x2050(%rbp),%rax
    27b0:	ba 00 20 00 00       	mov    $0x2000,%edx
    27b5:	48 89 ce             	mov    %rcx,%rsi
    27b8:	48 89 c7             	mov    %rax,%rdi
    27bb:	e8 ba f8 ff ff       	callq  207a <rio_readlineb>
    27c0:	48 85 c0             	test   %rax,%rax
    27c3:	7f 78                	jg     283d <submitr+0x534>
    27c5:	48 8b 45 10          	mov    0x10(%rbp),%rax
    27c9:	48 ba 45 72 72 6f 72 	movabs $0x43203a726f727245,%rdx
    27d0:	3a 20 43 
    27d3:	48 b9 6c 69 65 6e 74 	movabs $0x6e7520746e65696c,%rcx
    27da:	20 75 6e 
    27dd:	48 89 10             	mov    %rdx,(%rax)
    27e0:	48 89 48 08          	mov    %rcx,0x8(%rax)
    27e4:	48 bb 61 62 6c 65 20 	movabs $0x206f7420656c6261,%rbx
    27eb:	74 6f 20 
    27ee:	48 be 72 65 61 64 20 	movabs $0x7269662064616572,%rsi
    27f5:	66 69 72 
    27f8:	48 89 58 10          	mov    %rbx,0x10(%rax)
    27fc:	48 89 70 18          	mov    %rsi,0x18(%rax)
    2800:	48 ba 73 74 20 68 65 	movabs $0x6564616568207473,%rdx
    2807:	61 64 65 
    280a:	48 b9 72 20 66 72 6f 	movabs $0x73206d6f72662072,%rcx
    2811:	6d 20 73 
    2814:	48 89 50 20          	mov    %rdx,0x20(%rax)
    2818:	48 89 48 28          	mov    %rcx,0x28(%rax)
    281c:	c7 40 30 65 72 76 65 	movl   $0x65767265,0x30(%rax)
    2823:	66 c7 40 34 72 00    	movw   $0x72,0x34(%rax)
    2829:	8b 45 ec             	mov    -0x14(%rbp),%eax
    282c:	89 c7                	mov    %eax,%edi
    282e:	e8 8d e8 ff ff       	callq  10c0 <close@plt>
    2833:	b8 ff ff ff ff       	mov    $0xffffffff,%eax
    2838:	e9 05 02 00 00       	jmpq   2a42 <submitr+0x739>
    283d:	48 8d b5 a0 5f ff ff 	lea    -0xa060(%rbp),%rsi
    2844:	48 8d 8d ac 7f ff ff 	lea    -0x8054(%rbp),%rcx
    284b:	48 8d 95 b0 7f ff ff 	lea    -0x8050(%rbp),%rdx
    2852:	48 8d 85 b0 bf ff ff 	lea    -0x4050(%rbp),%rax
    2859:	49 89 f0             	mov    %rsi,%r8
    285c:	48 8d 35 bf 0b 00 00 	lea    0xbbf(%rip),%rsi        # 3422 <_IO_stdin_used+0x422>
    2863:	48 89 c7             	mov    %rax,%rdi
    2866:	b8 00 00 00 00       	mov    $0x0,%eax
    286b:	e8 e0 e8 ff ff       	callq  1150 <__isoc99_sscanf@plt>
    2870:	8b 85 ac 7f ff ff    	mov    -0x8054(%rbp),%eax
    2876:	3d c8 00 00 00       	cmp    $0xc8,%eax
    287b:	0f 84 cd 00 00 00    	je     294e <submitr+0x645>
    2881:	8b 85 ac 7f ff ff    	mov    -0x8054(%rbp),%eax
    2887:	48 8d 95 a0 5f ff ff 	lea    -0xa060(%rbp),%rdx
    288e:	48 89 d1             	mov    %rdx,%rcx
    2891:	89 c2                	mov    %eax,%edx
    2893:	48 8d 35 9e 0b 00 00 	lea    0xb9e(%rip),%rsi        # 3438 <_IO_stdin_used+0x438>
    289a:	48 8b 7d 10          	mov    0x10(%rbp),%rdi
    289e:	b8 00 00 00 00       	mov    $0x0,%eax
    28a3:	e8 e8 e8 ff ff       	callq  1190 <sprintf@plt>
    28a8:	8b 45 ec             	mov    -0x14(%rbp),%eax
    28ab:	89 c7                	mov    %eax,%edi
    28ad:	e8 0e e8 ff ff       	callq  10c0 <close@plt>
    28b2:	b8 ff ff ff ff       	mov    $0xffffffff,%eax
    28b7:	e9 86 01 00 00       	jmpq   2a42 <submitr+0x739>
    28bc:	48 8d 8d b0 bf ff ff 	lea    -0x4050(%rbp),%rcx
    28c3:	48 8d 85 b0 df ff ff 	lea    -0x2050(%rbp),%rax
    28ca:	ba 00 20 00 00       	mov    $0x2000,%edx
    28cf:	48 89 ce             	mov    %rcx,%rsi
    28d2:	48 89 c7             	mov    %rax,%rdi
    28d5:	e8 a0 f7 ff ff       	callq  207a <rio_readlineb>
    28da:	48 85 c0             	test   %rax,%rax
    28dd:	7f 6f                	jg     294e <submitr+0x645>
    28df:	48 8b 45 10          	mov    0x10(%rbp),%rax
    28e3:	48 bb 45 72 72 6f 72 	movabs $0x43203a726f727245,%rbx
    28ea:	3a 20 43 
    28ed:	48 be 6c 69 65 6e 74 	movabs $0x6e7520746e65696c,%rsi
    28f4:	20 75 6e 
    28f7:	48 89 18             	mov    %rbx,(%rax)
    28fa:	48 89 70 08          	mov    %rsi,0x8(%rax)
    28fe:	48 ba 61 62 6c 65 20 	movabs $0x206f7420656c6261,%rdx
    2905:	74 6f 20 
    2908:	48 b9 72 65 61 64 20 	movabs $0x6165682064616572,%rcx
    290f:	68 65 61 
    2912:	48 89 50 10          	mov    %rdx,0x10(%rax)
    2916:	48 89 48 18          	mov    %rcx,0x18(%rax)
    291a:	48 bb 64 65 72 73 20 	movabs $0x6f72662073726564,%rbx
    2921:	66 72 6f 
    2924:	48 be 6d 20 73 65 72 	movabs $0x726576726573206d,%rsi
    292b:	76 65 72 
    292e:	48 89 58 20          	mov    %rbx,0x20(%rax)
    2932:	48 89 70 28          	mov    %rsi,0x28(%rax)
    2936:	c6 40 30 00          	movb   $0x0,0x30(%rax)
    293a:	8b 45 ec             	mov    -0x14(%rbp),%eax
    293d:	89 c7                	mov    %eax,%edi
    293f:	e8 7c e7 ff ff       	callq  10c0 <close@plt>
    2944:	b8 ff ff ff ff       	mov    $0xffffffff,%eax
    2949:	e9 f4 00 00 00       	jmpq   2a42 <submitr+0x739>
    294e:	48 8d 85 b0 bf ff ff 	lea    -0x4050(%rbp),%rax
    2955:	48 8d 35 09 0b 00 00 	lea    0xb09(%rip),%rsi        # 3465 <_IO_stdin_used+0x465>
    295c:	48 89 c7             	mov    %rax,%rdi
    295f:	e8 8c e7 ff ff       	callq  10f0 <strcmp@plt>
    2964:	85 c0                	test   %eax,%eax
    2966:	0f 85 50 ff ff ff    	jne    28bc <submitr+0x5b3>
    296c:	48 8d 8d b0 bf ff ff 	lea    -0x4050(%rbp),%rcx
    2973:	48 8d 85 b0 df ff ff 	lea    -0x2050(%rbp),%rax
    297a:	ba 00 20 00 00       	mov    $0x2000,%edx
    297f:	48 89 ce             	mov    %rcx,%rsi
    2982:	48 89 c7             	mov    %rax,%rdi
    2985:	e8 f0 f6 ff ff       	callq  207a <rio_readlineb>
    298a:	48 85 c0             	test   %rax,%rax
    298d:	7f 76                	jg     2a05 <submitr+0x6fc>
    298f:	48 8b 45 10          	mov    0x10(%rbp),%rax
    2993:	48 ba 45 72 72 6f 72 	movabs $0x43203a726f727245,%rdx
    299a:	3a 20 43 
    299d:	48 b9 6c 69 65 6e 74 	movabs $0x6e7520746e65696c,%rcx
    29a4:	20 75 6e 
    29a7:	48 89 10             	mov    %rdx,(%rax)
    29aa:	48 89 48 08          	mov    %rcx,0x8(%rax)
    29ae:	48 bb 61 62 6c 65 20 	movabs $0x206f7420656c6261,%rbx
    29b5:	74 6f 20 
    29b8:	48 be 72 65 61 64 20 	movabs $0x6174732064616572,%rsi
    29bf:	73 74 61 
    29c2:	48 89 58 10          	mov    %rbx,0x10(%rax)
    29c6:	48 89 70 18          	mov    %rsi,0x18(%rax)
    29ca:	48 ba 74 75 73 20 6d 	movabs $0x7373656d20737574,%rdx
    29d1:	65 73 73 
    29d4:	48 b9 61 67 65 20 66 	movabs $0x6d6f726620656761,%rcx
    29db:	72 6f 6d 
    29de:	48 89 50 20          	mov    %rdx,0x20(%rax)
    29e2:	48 89 48 28          	mov    %rcx,0x28(%rax)
    29e6:	48 bf 20 73 65 72 76 	movabs $0x72657672657320,%rdi
    29ed:	65 72 00 
    29f0:	48 89 78 30          	mov    %rdi,0x30(%rax)
    29f4:	8b 45 ec             	mov    -0x14(%rbp),%eax
    29f7:	89 c7                	mov    %eax,%edi
    29f9:	e8 c2 e6 ff ff       	callq  10c0 <close@plt>
    29fe:	b8 ff ff ff ff       	mov    $0xffffffff,%eax
    2a03:	eb 3d                	jmp    2a42 <submitr+0x739>
    2a05:	48 8d 85 b0 bf ff ff 	lea    -0x4050(%rbp),%rax
    2a0c:	48 89 c6             	mov    %rax,%rsi
    2a0f:	48 8b 7d 10          	mov    0x10(%rbp),%rdi
    2a13:	e8 38 e6 ff ff       	callq  1050 <strcpy@plt>
    2a18:	8b 45 ec             	mov    -0x14(%rbp),%eax
    2a1b:	89 c7                	mov    %eax,%edi
    2a1d:	e8 9e e6 ff ff       	callq  10c0 <close@plt>
    2a22:	48 8d 35 3f 0a 00 00 	lea    0xa3f(%rip),%rsi        # 3468 <_IO_stdin_used+0x468>
    2a29:	48 8b 7d 10          	mov    0x10(%rbp),%rdi
    2a2d:	e8 be e6 ff ff       	callq  10f0 <strcmp@plt>
    2a32:	85 c0                	test   %eax,%eax
    2a34:	75 07                	jne    2a3d <submitr+0x734>
    2a36:	b8 00 00 00 00       	mov    $0x0,%eax
    2a3b:	eb 05                	jmp    2a42 <submitr+0x739>
    2a3d:	b8 ff ff ff ff       	mov    $0xffffffff,%eax
    2a42:	48 8b 5d f8          	mov    -0x8(%rbp),%rbx
    2a46:	c9                   	leaveq 
    2a47:	c3                   	retq   

0000000000002a48 <init_timeout>:
    2a48:	55                   	push   %rbp
    2a49:	48 89 e5             	mov    %rsp,%rbp
    2a4c:	48 83 ec 10          	sub    $0x10,%rsp
    2a50:	89 7d fc             	mov    %edi,-0x4(%rbp)
    2a53:	83 7d fc 00          	cmpl   $0x0,-0x4(%rbp)
    2a57:	74 2a                	je     2a83 <init_timeout+0x3b>
    2a59:	83 7d fc 00          	cmpl   $0x0,-0x4(%rbp)
    2a5d:	79 07                	jns    2a66 <init_timeout+0x1e>
    2a5f:	c7 45 fc 00 00 00 00 	movl   $0x0,-0x4(%rbp)
    2a66:	48 8d 35 a8 f4 ff ff 	lea    -0xb58(%rip),%rsi        # 1f15 <sigalrm_handler>
    2a6d:	bf 0e 00 00 00       	mov    $0xe,%edi
    2a72:	e8 89 e6 ff ff       	callq  1100 <signal@plt>
    2a77:	8b 45 fc             	mov    -0x4(%rbp),%eax
    2a7a:	89 c7                	mov    %eax,%edi
    2a7c:	e8 2f e6 ff ff       	callq  10b0 <alarm@plt>
    2a81:	eb 01                	jmp    2a84 <init_timeout+0x3c>
    2a83:	90                   	nop
    2a84:	c9                   	leaveq 
    2a85:	c3                   	retq   

0000000000002a86 <init_driver>:
    2a86:	55                   	push   %rbp
    2a87:	48 89 e5             	mov    %rsp,%rbp
    2a8a:	48 83 ec 40          	sub    $0x40,%rsp
    2a8e:	48 89 7d c8          	mov    %rdi,-0x38(%rbp)
    2a92:	48 8d 05 d2 09 00 00 	lea    0x9d2(%rip),%rax        # 346b <_IO_stdin_used+0x46b>
    2a99:	48 89 45 f8          	mov    %rax,-0x8(%rbp)
    2a9d:	c7 45 f4 6e 3b 00 00 	movl   $0x3b6e,-0xc(%rbp)
    2aa4:	be 01 00 00 00       	mov    $0x1,%esi
    2aa9:	bf 0d 00 00 00       	mov    $0xd,%edi
    2aae:	e8 4d e6 ff ff       	callq  1100 <signal@plt>
    2ab3:	be 01 00 00 00       	mov    $0x1,%esi
    2ab8:	bf 1d 00 00 00       	mov    $0x1d,%edi
    2abd:	e8 3e e6 ff ff       	callq  1100 <signal@plt>
    2ac2:	be 01 00 00 00       	mov    $0x1,%esi
    2ac7:	bf 1d 00 00 00       	mov    $0x1d,%edi
    2acc:	e8 2f e6 ff ff       	callq  1100 <signal@plt>
    2ad1:	ba 00 00 00 00       	mov    $0x0,%edx
    2ad6:	be 01 00 00 00       	mov    $0x1,%esi
    2adb:	bf 02 00 00 00       	mov    $0x2,%edi
    2ae0:	e8 fb e6 ff ff       	callq  11e0 <socket@plt>
    2ae5:	89 45 f0             	mov    %eax,-0x10(%rbp)
    2ae8:	83 7d f0 00          	cmpl   $0x0,-0x10(%rbp)
    2aec:	79 52                	jns    2b40 <init_driver+0xba>
    2aee:	48 8b 45 c8          	mov    -0x38(%rbp),%rax
    2af2:	48 be 45 72 72 6f 72 	movabs $0x43203a726f727245,%rsi
    2af9:	3a 20 43 
    2afc:	48 bf 6c 69 65 6e 74 	movabs $0x6e7520746e65696c,%rdi
    2b03:	20 75 6e 
    2b06:	48 89 30             	mov    %rsi,(%rax)
    2b09:	48 89 78 08          	mov    %rdi,0x8(%rax)
    2b0d:	48 ba 61 62 6c 65 20 	movabs $0x206f7420656c6261,%rdx
    2b14:	74 6f 20 
    2b17:	48 b9 63 72 65 61 74 	movabs $0x7320657461657263,%rcx
    2b1e:	65 20 73 
    2b21:	48 89 50 10          	mov    %rdx,0x10(%rax)
    2b25:	48 89 48 18          	mov    %rcx,0x18(%rax)
    2b29:	c7 40 20 6f 63 6b 65 	movl   $0x656b636f,0x20(%rax)
    2b30:	66 c7 40 24 74 00    	movw   $0x74,0x24(%rax)
    2b36:	b8 ff ff ff ff       	mov    $0xffffffff,%eax
    2b3b:	e9 3a 01 00 00       	jmpq   2c7a <init_driver+0x1f4>
    2b40:	48 8b 45 f8          	mov    -0x8(%rbp),%rax
    2b44:	48 89 c7             	mov    %rax,%rdi
    2b47:	e8 c4 e5 ff ff       	callq  1110 <gethostbyname@plt>
    2b4c:	48 89 45 e8          	mov    %rax,-0x18(%rbp)
    2b50:	48 83 7d e8 00       	cmpq   $0x0,-0x18(%rbp)
    2b55:	75 6e                	jne    2bc5 <init_driver+0x13f>
    2b57:	48 8b 45 c8          	mov    -0x38(%rbp),%rax
    2b5b:	48 be 45 72 72 6f 72 	movabs $0x44203a726f727245,%rsi
    2b62:	3a 20 44 
    2b65:	48 bf 4e 53 20 69 73 	movabs $0x6e7520736920534e,%rdi
    2b6c:	20 75 6e 
    2b6f:	48 89 30             	mov    %rsi,(%rax)
    2b72:	48 89 78 08          	mov    %rdi,0x8(%rax)
    2b76:	48 ba 61 62 6c 65 20 	movabs $0x206f7420656c6261,%rdx
    2b7d:	74 6f 20 
    2b80:	48 b9 72 65 73 6f 6c 	movabs $0x2065766c6f736572,%rcx
    2b87:	76 65 20 
    2b8a:	48 89 50 10          	mov    %rdx,0x10(%rax)
    2b8e:	48 89 48 18          	mov    %rcx,0x18(%rax)
    2b92:	48 b9 73 65 72 76 65 	movabs $0x6120726576726573,%rcx
    2b99:	72 20 61 
    2b9c:	48 89 48 20          	mov    %rcx,0x20(%rax)
    2ba0:	c7 40 28 64 64 72 65 	movl   $0x65726464,0x28(%rax)
    2ba7:	66 c7 40 2c 73 73    	movw   $0x7373,0x2c(%rax)
    2bad:	c6 40 2e 00          	movb   $0x0,0x2e(%rax)
    2bb1:	8b 45 f0             	mov    -0x10(%rbp),%eax
    2bb4:	89 c7                	mov    %eax,%edi
    2bb6:	e8 05 e5 ff ff       	callq  10c0 <close@plt>
    2bbb:	b8 ff ff ff ff       	mov    $0xffffffff,%eax
    2bc0:	e9 b5 00 00 00       	jmpq   2c7a <init_driver+0x1f4>
    2bc5:	48 8d 45 d0          	lea    -0x30(%rbp),%rax
    2bc9:	48 c7 00 00 00 00 00 	movq   $0x0,(%rax)
    2bd0:	48 c7 40 08 00 00 00 	movq   $0x0,0x8(%rax)
    2bd7:	00 
    2bd8:	66 c7 45 d0 02 00    	movw   $0x2,-0x30(%rbp)
    2bde:	48 8b 45 e8          	mov    -0x18(%rbp),%rax
    2be2:	8b 40 14             	mov    0x14(%rax),%eax
    2be5:	48 63 d0             	movslq %eax,%rdx
    2be8:	48 8b 45 e8          	mov    -0x18(%rbp),%rax
    2bec:	48 8b 40 18          	mov    0x18(%rax),%rax
    2bf0:	48 8b 00             	mov    (%rax),%rax
    2bf3:	48 8d 4d d0          	lea    -0x30(%rbp),%rcx
    2bf7:	48 83 c1 04          	add    $0x4,%rcx
    2bfb:	48 89 c6             	mov    %rax,%rsi
    2bfe:	48 89 cf             	mov    %rcx,%rdi
    2c01:	e8 5a e5 ff ff       	callq  1160 <memmove@plt>
    2c06:	8b 45 f4             	mov    -0xc(%rbp),%eax
    2c09:	0f b7 c0             	movzwl %ax,%eax
    2c0c:	89 c7                	mov    %eax,%edi
    2c0e:	e8 7d e4 ff ff       	callq  1090 <htons@plt>
    2c13:	66 89 45 d2          	mov    %ax,-0x2e(%rbp)
    2c17:	48 8d 4d d0          	lea    -0x30(%rbp),%rcx
    2c1b:	8b 45 f0             	mov    -0x10(%rbp),%eax
    2c1e:	ba 10 00 00 00       	mov    $0x10,%edx
    2c23:	48 89 ce             	mov    %rcx,%rsi
    2c26:	89 c7                	mov    %eax,%edi
    2c28:	e8 83 e5 ff ff       	callq  11b0 <connect@plt>
    2c2d:	85 c0                	test   %eax,%eax
    2c2f:	79 2d                	jns    2c5e <init_driver+0x1d8>
    2c31:	48 8b 55 f8          	mov    -0x8(%rbp),%rdx
    2c35:	48 8b 45 c8          	mov    -0x38(%rbp),%rax
    2c39:	48 8d 35 48 08 00 00 	lea    0x848(%rip),%rsi        # 3488 <_IO_stdin_used+0x488>
    2c40:	48 89 c7             	mov    %rax,%rdi
    2c43:	b8 00 00 00 00       	mov    $0x0,%eax
    2c48:	e8 43 e5 ff ff       	callq  1190 <sprintf@plt>
    2c4d:	8b 45 f0             	mov    -0x10(%rbp),%eax
    2c50:	89 c7                	mov    %eax,%edi
    2c52:	e8 69 e4 ff ff       	callq  10c0 <close@plt>
    2c57:	b8 ff ff ff ff       	mov    $0xffffffff,%eax
    2c5c:	eb 1c                	jmp    2c7a <init_driver+0x1f4>
    2c5e:	8b 45 f0             	mov    -0x10(%rbp),%eax
    2c61:	89 c7                	mov    %eax,%edi
    2c63:	e8 58 e4 ff ff       	callq  10c0 <close@plt>
    2c68:	48 8b 45 c8          	mov    -0x38(%rbp),%rax
    2c6c:	66 c7 00 4f 4b       	movw   $0x4b4f,(%rax)
    2c71:	c6 40 02 00          	movb   $0x0,0x2(%rax)
    2c75:	b8 00 00 00 00       	mov    $0x0,%eax
    2c7a:	c9                   	leaveq 
    2c7b:	c3                   	retq   

0000000000002c7c <driver_post>:
    2c7c:	55                   	push   %rbp
    2c7d:	48 89 e5             	mov    %rsp,%rbp
    2c80:	48 83 ec 30          	sub    $0x30,%rsp
    2c84:	48 89 7d e8          	mov    %rdi,-0x18(%rbp)
    2c88:	48 89 75 e0          	mov    %rsi,-0x20(%rbp)
    2c8c:	89 55 dc             	mov    %edx,-0x24(%rbp)
    2c8f:	48 89 4d d0          	mov    %rcx,-0x30(%rbp)
    2c93:	83 7d dc 00          	cmpl   $0x0,-0x24(%rbp)
    2c97:	74 2c                	je     2cc5 <driver_post+0x49>
    2c99:	48 8b 45 e0          	mov    -0x20(%rbp),%rax
    2c9d:	48 89 c6             	mov    %rax,%rsi
    2ca0:	48 8d 3d 07 08 00 00 	lea    0x807(%rip),%rdi        # 34ae <_IO_stdin_used+0x4ae>
    2ca7:	b8 00 00 00 00       	mov    $0x0,%eax
    2cac:	e8 ef e3 ff ff       	callq  10a0 <printf@plt>
    2cb1:	48 8b 45 d0          	mov    -0x30(%rbp),%rax
    2cb5:	66 c7 00 4f 4b       	movw   $0x4b4f,(%rax)
    2cba:	c6 40 02 00          	movb   $0x0,0x2(%rax)
    2cbe:	b8 00 00 00 00       	mov    $0x0,%eax
    2cc3:	eb 67                	jmp    2d2c <driver_post+0xb0>
    2cc5:	48 83 7d e8 00       	cmpq   $0x0,-0x18(%rbp)
    2cca:	74 4e                	je     2d1a <driver_post+0x9e>
    2ccc:	48 8b 45 e8          	mov    -0x18(%rbp),%rax
    2cd0:	0f b6 00             	movzbl (%rax),%eax
    2cd3:	0f b6 c0             	movzbl %al,%eax
    2cd6:	85 c0                	test   %eax,%eax
    2cd8:	74 40                	je     2d1a <driver_post+0x9e>
    2cda:	48 8b 55 e0          	mov    -0x20(%rbp),%rdx
    2cde:	48 8b 45 e8          	mov    -0x18(%rbp),%rax
    2ce2:	48 83 ec 08          	sub    $0x8,%rsp
    2ce6:	ff 75 d0             	pushq  -0x30(%rbp)
    2ce9:	49 89 d1             	mov    %rdx,%r9
    2cec:	4c 8d 05 d2 07 00 00 	lea    0x7d2(%rip),%r8        # 34c5 <_IO_stdin_used+0x4c5>
    2cf3:	48 89 c1             	mov    %rax,%rcx
    2cf6:	48 8d 15 d0 07 00 00 	lea    0x7d0(%rip),%rdx        # 34cd <_IO_stdin_used+0x4cd>
    2cfd:	be 6e 3b 00 00       	mov    $0x3b6e,%esi
    2d02:	48 8d 3d 62 07 00 00 	lea    0x762(%rip),%rdi        # 346b <_IO_stdin_used+0x46b>
    2d09:	e8 fb f5 ff ff       	callq  2309 <submitr>
    2d0e:	48 83 c4 10          	add    $0x10,%rsp
    2d12:	89 45 fc             	mov    %eax,-0x4(%rbp)
    2d15:	8b 45 fc             	mov    -0x4(%rbp),%eax
    2d18:	eb 12                	jmp    2d2c <driver_post+0xb0>
    2d1a:	48 8b 45 d0          	mov    -0x30(%rbp),%rax
    2d1e:	66 c7 00 4f 4b       	movw   $0x4b4f,(%rax)
    2d23:	c6 40 02 00          	movb   $0x0,0x2(%rax)
    2d27:	b8 00 00 00 00       	mov    $0x0,%eax
    2d2c:	c9                   	leaveq 
    2d2d:	c3                   	retq   
    2d2e:	66 90                	xchg   %ax,%ax

0000000000002d30 <__libc_csu_init>:
    2d30:	41 57                	push   %r15
    2d32:	4c 8d 3d af 20 00 00 	lea    0x20af(%rip),%r15        # 4de8 <__frame_dummy_init_array_entry>
    2d39:	41 56                	push   %r14
    2d3b:	49 89 d6             	mov    %rdx,%r14
    2d3e:	41 55                	push   %r13
    2d40:	49 89 f5             	mov    %rsi,%r13
    2d43:	41 54                	push   %r12
    2d45:	41 89 fc             	mov    %edi,%r12d
    2d48:	55                   	push   %rbp
    2d49:	48 8d 2d a0 20 00 00 	lea    0x20a0(%rip),%rbp        # 4df0 <__do_global_dtors_aux_fini_array_entry>
    2d50:	53                   	push   %rbx
    2d51:	4c 29 fd             	sub    %r15,%rbp
    2d54:	48 83 ec 08          	sub    $0x8,%rsp
    2d58:	e8 a3 e2 ff ff       	callq  1000 <_init>
    2d5d:	48 c1 fd 03          	sar    $0x3,%rbp
    2d61:	74 1b                	je     2d7e <__libc_csu_init+0x4e>
    2d63:	31 db                	xor    %ebx,%ebx
    2d65:	0f 1f 00             	nopl   (%rax)
    2d68:	4c 89 f2             	mov    %r14,%rdx
    2d6b:	4c 89 ee             	mov    %r13,%rsi
    2d6e:	44 89 e7             	mov    %r12d,%edi
    2d71:	41 ff 14 df          	callq  *(%r15,%rbx,8)
    2d75:	48 83 c3 01          	add    $0x1,%rbx
    2d79:	48 39 dd             	cmp    %rbx,%rbp
    2d7c:	75 ea                	jne    2d68 <__libc_csu_init+0x38>
    2d7e:	48 83 c4 08          	add    $0x8,%rsp
    2d82:	5b                   	pop    %rbx
    2d83:	5d                   	pop    %rbp
    2d84:	41 5c                	pop    %r12
    2d86:	41 5d                	pop    %r13
    2d88:	41 5e                	pop    %r14
    2d8a:	41 5f                	pop    %r15
    2d8c:	c3                   	retq   
    2d8d:	0f 1f 00             	nopl   (%rax)

0000000000002d90 <__libc_csu_fini>:
    2d90:	c3                   	retq   

Disassembly of section .fini:

0000000000002d94 <_fini>:
    2d94:	48 83 ec 08          	sub    $0x8,%rsp
    2d98:	48 83 c4 08          	add    $0x8,%rsp
    2d9c:	c3                   	retq   
